

Microchip Technology PIC18 LITE Macro Assembler V2.00 build -1524193055 
                                                                                               Sun Dec 02 01:09:49 2018

Microchip Technology Omniscient Code Generator v2.00 (Free mode) build 20180527130849
     1  0000                     
     2                           ; Version 2.00
     3                           ; Generated 27/05/2018 GMT
     4                           
     5                           ; 
     6                           ; Copyright © 2018, Microchip Technology Inc. and its subsidiaries ("Microchip")
     7                           ; All rights reserved.
     8                           ; 
     9                           ; This software is developed by Microchip Technology Inc. and its subsidiaries ("Microch
                                 ip").
    10                           ; 
    11                           ; Redistribution and use in source and binary forms, with or without modification, are
    12                           ; permitted provided that the following conditions are met:
    13                           ; 
    14                           ;     1. Redistributions of source code must retain the above copyright notice, this lis
                                 t of
    15                           ;        conditions and the following disclaimer.
    16                           ; 
    17                           ;     2. Redistributions in binary form must reproduce the above copyright notice, this 
                                 list
    18                           ;        of conditions and the following disclaimer in the documentation and/or other
    19                           ;        materials provided with the distribution.
    20                           ; 
    21                           ;     3. Microchip's name may not be used to endorse or promote products derived from th
                                 is
    22                           ;        software without specific prior written permission.
    23                           ; 
    24                           ; THIS SOFTWARE IS PROVIDED BY MICROCHIP "AS IS" AND ANY EXPRESS OR IMPLIED WARRANTIES,

    25                           ; INCLUDING, BUT NOT LIMITED TO, THE IMPLIED WARRANTIES OF MERCHANTABILITY AND FITNESS F
                                 OR
    26                           ; PURPOSE ARE DISCLAIMED.  IN NO EVENT SHALL MICROCHIP BE LIABLE FOR ANY DIRECT, INDIREC
                                 T,
    27                           ; INCIDENTAL, SPECIAL, EXEMPLARY, OR CONSEQUENTIAL DAMAGES (INCLUDING BUT NOT LIMITED TO
                                 
    28                           ; PROCUREMENT OF SUBSTITUTE GOODS OR SERVICES; LOSS OF USE, DATA OR PROFITS; OR BUSINESS
                                 
    29                           ; INTERRUPTION) HOWSOEVER CAUSED AND ON ANY THEORY OF LIABILITY, WHETHER IN CONTRACT, ST
                                 RICT
    30                           ; LIABILITY, OR TORT (INCLUDING NEGLIGENCE OR OTHERWISE) ARISING IN ANY WAY OUT OF THE U
                                 SE OF
    31                           ; THIS SOFTWARE, EVEN IF ADVISED OF THE POSSIBILITY OF SUCH DAMAGE.
    32                           ; 
    33                           
    34                           
    35                           ; 
    36                           ; Code-generator required, PIC18F2550 Definitions
    37                           ; 
    38  0000                     fsr0 equ 0FE9h
    39  0000                     fsr0h equ 0FEAh
    40  0000                     fsr0l equ 0FE9h
    41  0000                     fsr1 equ 0FE1h
    42  0000                     fsr1h equ 0FE2h
    43  0000                     fsr1l equ 0FE1h
    44  0000                     fsr2 equ 0FD9h
    45  0000                     fsr2h equ 0FDAh
    46  0000                     fsr2l equ 0FD9h
    47  0000                     indf0 equ 0FEFh
    48  0000                     indf1 equ 0FE7h
    49  0000                     indf2 equ 0FDFh
    50  0000                     intcon equ 0FF2h
    51  0000                     nvmcon equ 00h
    52  0000                     pcl equ 0FF9h
    53  0000                     pclath equ 0FFAh
    54  0000                     pclatu equ 0FFBh
    55  0000                     plusw0 equ 0FEBh
    56  0000                     plusw1 equ 0FE3h
    57  0000                     plusw2 equ 0FDBh
    58  0000                     postdec0 equ 0FEDh
    59  0000                     postdec1 equ 0FE5h
    60  0000                     postdec2 equ 0FDDh
    61  0000                     postinc0 equ 0FEEh
    62  0000                     postinc1 equ 0FE6h
    63  0000                     postinc2 equ 0FDEh
    64  0000                     preinc0 equ 0FECh
    65  0000                     preinc1 equ 0FE4h
    66  0000                     preinc2 equ 0FDCh
    67  0000                     prod equ 0FF3h
    68  0000                     prodh equ 0FF4h
    69  0000                     prodl equ 0FF3h
    70  0000                     status equ 0FD8h
    71  0000                     tablat equ 0FF5h
    72  0000                     tblptr equ 0FF6h
    73  0000                     tblptrh equ 0FF7h
    74  0000                     tblptrl equ 0FF6h
    75  0000                     tblptru equ 0FF8h
    76  0000                     tosl equ 0FFDh
    77  0000                     wreg equ 0FE8h
    78  0000                     
     2                           opt pagewidth 120
     3  0000                     byte0	macro	val
     4                           	(getbyte(val,0))
     5                           endm
     6  0000                     byte1	macro	val
     7                           	(getbyte(val,1))
     8                           endm
     9  0000                     byte2	macro	val
    10                           	(getbyte(val,2))
    11                           endm
    12  0000                     byte3	macro	val
    13                           	(getbyte(val,3))
    14                           endm
    15  0000                     byte4	macro	val
    16                           	(getbyte(val,4))
    17                           endm
    18  0000                     byte5	macro	val
    19                           	(getbyte(val,5))
    20                           endm
    21  0000                     byte6	macro	val
    22                           	(getbyte(val,6))
    23                           endm
    24  0000                     byte7	macro	val
    25                           	(getbyte(val,7))
    26                           endm
    27  0000                     getword	macro	val,pos
    28                           	(((val) >> (8 * pos)) and 0xffff)
    29                           endm
    30  0000                     word0	macro	val
    31                           	(getword(val,0))
    32                           endm
    33  0000                     word1	macro	val
    34                           	(getword(val,2))
    35                           endm
    36  0000                     word2	macro	val
    37                           	(getword(val,4))
    38                           endm
    39  0000                     word3	macro	val
    40                           	(getword(val,6))
    41                           endm
    42  0000                     gettword	macro	val,pos
    43                           	(((val) >> (8 * pos)) and 0xffffff)
    44                           endm
    45  0000                     tword0	macro	val
    46                           	(gettword(val,0))
    47                           endm
    48  0000                     tword1	macro	val
    49                           	(gettword(val,3))
    50                           endm
    51  0000                     tword2	macro	val
    52                           	(gettword(val,6))
    53                           endm
    54  0000                     getdword	macro	val,pos
    55                           	(((val) >> (8 * pos)) and 0xffffffff)
    56                           endm
    57  0000                     dword0	macro	val
    58                           	(getdword(val,0))
    59                           endm
    60  0000                     dword1	macro	val
    61                           	(getdword(val,4))
    62                           endm
    63  0000                     clrc   macro
    64                           	bcf	status,0
    65                           endm
    66  0000                     setc   macro
    67                           	bsf	status,0
    68                           endm
    69  0000                     clrz   macro
    70                           	bcf	status,2
    71                           endm
    72  0000                     setz   macro
    73                           	bsf	status,2
    74                           endm
    75  0000                     skipnz macro
    76                           	btfsc	status,2
    77                           endm
    78  0000                     skipz  macro
    79                           	btfss	status,2
    80                           endm
    81  0000                     skipnc macro
    82                           	btfsc	status,0
    83                           endm
    84  0000                     skipc  macro
    85                           	btfss	status,0
    86                           endm
    87  0000                     pushw macro
    88                           	movwf postinc1
    89                           endm
    90  0000                     pushf macro arg1
    91                           	movff arg1, postinc1
    92                           endm
    93  0000                     popw macro
    94                           	movf postdec1,f
    95                           	movf indf1,w
    96                           endm
    97  0000                     popf macro arg1
    98                           	movf postdec1,f
    99                           	movff indf1,arg1
   100                           endm
   101  0000                     popfc macro arg1
   102                           	movff plusw1,arg1
   103                           	decfsz fsr1,f
   104                           endm
   105  0000                     	global	__ramtop
   106                           	global	__accesstop
   107                           # 54 "C:\Program Files (x86)\Microchip\xc8\v2.00\pic\include\pic18f2550.h"
   108                           UFRM equ 0F66h ;# 
   109  0000                     # 61 "C:\Program Files (x86)\Microchip\xc8\v2.00\pic\include\pic18f2550.h"
   110                           UFRML equ 0F66h ;# 
   111  0000                     # 139 "C:\Program Files (x86)\Microchip\xc8\v2.00\pic\include\pic18f2550.h"
   112                           UFRMH equ 0F67h ;# 
   113  0000                     # 179 "C:\Program Files (x86)\Microchip\xc8\v2.00\pic\include\pic18f2550.h"
   114                           UIR equ 0F68h ;# 
   115  0000                     # 235 "C:\Program Files (x86)\Microchip\xc8\v2.00\pic\include\pic18f2550.h"
   116                           UIE equ 0F69h ;# 
   117  0000                     # 291 "C:\Program Files (x86)\Microchip\xc8\v2.00\pic\include\pic18f2550.h"
   118                           UEIR equ 0F6Ah ;# 
   119  0000                     # 342 "C:\Program Files (x86)\Microchip\xc8\v2.00\pic\include\pic18f2550.h"
   120                           UEIE equ 0F6Bh ;# 
   121  0000                     # 393 "C:\Program Files (x86)\Microchip\xc8\v2.00\pic\include\pic18f2550.h"
   122                           USTAT equ 0F6Ch ;# 
   123  0000                     # 453 "C:\Program Files (x86)\Microchip\xc8\v2.00\pic\include\pic18f2550.h"
   124                           UCON equ 0F6Dh ;# 
   125  0000                     # 504 "C:\Program Files (x86)\Microchip\xc8\v2.00\pic\include\pic18f2550.h"
   126                           UADDR equ 0F6Eh ;# 
   127  0000                     # 568 "C:\Program Files (x86)\Microchip\xc8\v2.00\pic\include\pic18f2550.h"
   128                           UCFG equ 0F6Fh ;# 
   129  0000                     # 647 "C:\Program Files (x86)\Microchip\xc8\v2.00\pic\include\pic18f2550.h"
   130                           UEP0 equ 0F70h ;# 
   131  0000                     # 755 "C:\Program Files (x86)\Microchip\xc8\v2.00\pic\include\pic18f2550.h"
   132                           UEP1 equ 0F71h ;# 
   133  0000                     # 863 "C:\Program Files (x86)\Microchip\xc8\v2.00\pic\include\pic18f2550.h"
   134                           UEP2 equ 0F72h ;# 
   135  0000                     # 971 "C:\Program Files (x86)\Microchip\xc8\v2.00\pic\include\pic18f2550.h"
   136                           UEP3 equ 0F73h ;# 
   137  0000                     # 1079 "C:\Program Files (x86)\Microchip\xc8\v2.00\pic\include\pic18f2550.h"
   138                           UEP4 equ 0F74h ;# 
   139  0000                     # 1187 "C:\Program Files (x86)\Microchip\xc8\v2.00\pic\include\pic18f2550.h"
   140                           UEP5 equ 0F75h ;# 
   141  0000                     # 1295 "C:\Program Files (x86)\Microchip\xc8\v2.00\pic\include\pic18f2550.h"
   142                           UEP6 equ 0F76h ;# 
   143  0000                     # 1403 "C:\Program Files (x86)\Microchip\xc8\v2.00\pic\include\pic18f2550.h"
   144                           UEP7 equ 0F77h ;# 
   145  0000                     # 1511 "C:\Program Files (x86)\Microchip\xc8\v2.00\pic\include\pic18f2550.h"
   146                           UEP8 equ 0F78h ;# 
   147  0000                     # 1587 "C:\Program Files (x86)\Microchip\xc8\v2.00\pic\include\pic18f2550.h"
   148                           UEP9 equ 0F79h ;# 
   149  0000                     # 1663 "C:\Program Files (x86)\Microchip\xc8\v2.00\pic\include\pic18f2550.h"
   150                           UEP10 equ 0F7Ah ;# 
   151  0000                     # 1739 "C:\Program Files (x86)\Microchip\xc8\v2.00\pic\include\pic18f2550.h"
   152                           UEP11 equ 0F7Bh ;# 
   153  0000                     # 1815 "C:\Program Files (x86)\Microchip\xc8\v2.00\pic\include\pic18f2550.h"
   154                           UEP12 equ 0F7Ch ;# 
   155  0000                     # 1891 "C:\Program Files (x86)\Microchip\xc8\v2.00\pic\include\pic18f2550.h"
   156                           UEP13 equ 0F7Dh ;# 
   157  0000                     # 1967 "C:\Program Files (x86)\Microchip\xc8\v2.00\pic\include\pic18f2550.h"
   158                           UEP14 equ 0F7Eh ;# 
   159  0000                     # 2043 "C:\Program Files (x86)\Microchip\xc8\v2.00\pic\include\pic18f2550.h"
   160                           UEP15 equ 0F7Fh ;# 
   161  0000                     # 2119 "C:\Program Files (x86)\Microchip\xc8\v2.00\pic\include\pic18f2550.h"
   162                           PORTA equ 0F80h ;# 
   163  0000                     # 2258 "C:\Program Files (x86)\Microchip\xc8\v2.00\pic\include\pic18f2550.h"
   164                           PORTB equ 0F81h ;# 
   165  0000                     # 2368 "C:\Program Files (x86)\Microchip\xc8\v2.00\pic\include\pic18f2550.h"
   166                           PORTC equ 0F82h ;# 
   167  0000                     # 2510 "C:\Program Files (x86)\Microchip\xc8\v2.00\pic\include\pic18f2550.h"
   168                           PORTE equ 0F84h ;# 
   169  0000                     # 2549 "C:\Program Files (x86)\Microchip\xc8\v2.00\pic\include\pic18f2550.h"
   170                           LATA equ 0F89h ;# 
   171  0000                     # 2649 "C:\Program Files (x86)\Microchip\xc8\v2.00\pic\include\pic18f2550.h"
   172                           LATB equ 0F8Ah ;# 
   173  0000                     # 2761 "C:\Program Files (x86)\Microchip\xc8\v2.00\pic\include\pic18f2550.h"
   174                           LATC equ 0F8Bh ;# 
   175  0000                     # 2839 "C:\Program Files (x86)\Microchip\xc8\v2.00\pic\include\pic18f2550.h"
   176                           TRISA equ 0F92h ;# 
   177  0000                     # 2844 "C:\Program Files (x86)\Microchip\xc8\v2.00\pic\include\pic18f2550.h"
   178                           DDRA equ 0F92h ;# 
   179  0000                     # 3037 "C:\Program Files (x86)\Microchip\xc8\v2.00\pic\include\pic18f2550.h"
   180                           TRISB equ 0F93h ;# 
   181  0000                     # 3042 "C:\Program Files (x86)\Microchip\xc8\v2.00\pic\include\pic18f2550.h"
   182                           DDRB equ 0F93h ;# 
   183  0000                     # 3259 "C:\Program Files (x86)\Microchip\xc8\v2.00\pic\include\pic18f2550.h"
   184                           TRISC equ 0F94h ;# 
   185  0000                     # 3264 "C:\Program Files (x86)\Microchip\xc8\v2.00\pic\include\pic18f2550.h"
   186                           DDRC equ 0F94h ;# 
   187  0000                     # 3413 "C:\Program Files (x86)\Microchip\xc8\v2.00\pic\include\pic18f2550.h"
   188                           OSCTUNE equ 0F9Bh ;# 
   189  0000                     # 3472 "C:\Program Files (x86)\Microchip\xc8\v2.00\pic\include\pic18f2550.h"
   190                           PIE1 equ 0F9Dh ;# 
   191  0000                     # 3543 "C:\Program Files (x86)\Microchip\xc8\v2.00\pic\include\pic18f2550.h"
   192                           PIR1 equ 0F9Eh ;# 
   193  0000                     # 3614 "C:\Program Files (x86)\Microchip\xc8\v2.00\pic\include\pic18f2550.h"
   194                           IPR1 equ 0F9Fh ;# 
   195  0000                     # 3685 "C:\Program Files (x86)\Microchip\xc8\v2.00\pic\include\pic18f2550.h"
   196                           PIE2 equ 0FA0h ;# 
   197  0000                     # 3756 "C:\Program Files (x86)\Microchip\xc8\v2.00\pic\include\pic18f2550.h"
   198                           PIR2 equ 0FA1h ;# 
   199  0000                     # 3827 "C:\Program Files (x86)\Microchip\xc8\v2.00\pic\include\pic18f2550.h"
   200                           IPR2 equ 0FA2h ;# 
   201  0000                     # 3898 "C:\Program Files (x86)\Microchip\xc8\v2.00\pic\include\pic18f2550.h"
   202                           EECON1 equ 0FA6h ;# 
   203  0000                     # 3964 "C:\Program Files (x86)\Microchip\xc8\v2.00\pic\include\pic18f2550.h"
   204                           EECON2 equ 0FA7h ;# 
   205  0000                     # 3971 "C:\Program Files (x86)\Microchip\xc8\v2.00\pic\include\pic18f2550.h"
   206                           EEDATA equ 0FA8h ;# 
   207  0000                     # 3978 "C:\Program Files (x86)\Microchip\xc8\v2.00\pic\include\pic18f2550.h"
   208                           EEADR equ 0FA9h ;# 
   209  0000                     # 3985 "C:\Program Files (x86)\Microchip\xc8\v2.00\pic\include\pic18f2550.h"
   210                           RCSTA equ 0FABh ;# 
   211  0000                     # 3990 "C:\Program Files (x86)\Microchip\xc8\v2.00\pic\include\pic18f2550.h"
   212                           RCSTA1 equ 0FABh ;# 
   213  0000                     # 4195 "C:\Program Files (x86)\Microchip\xc8\v2.00\pic\include\pic18f2550.h"
   214                           TXSTA equ 0FACh ;# 
   215  0000                     # 4200 "C:\Program Files (x86)\Microchip\xc8\v2.00\pic\include\pic18f2550.h"
   216                           TXSTA1 equ 0FACh ;# 
   217  0000                     # 4451 "C:\Program Files (x86)\Microchip\xc8\v2.00\pic\include\pic18f2550.h"
   218                           TXREG equ 0FADh ;# 
   219  0000                     # 4456 "C:\Program Files (x86)\Microchip\xc8\v2.00\pic\include\pic18f2550.h"
   220                           TXREG1 equ 0FADh ;# 
   221  0000                     # 4463 "C:\Program Files (x86)\Microchip\xc8\v2.00\pic\include\pic18f2550.h"
   222                           RCREG equ 0FAEh ;# 
   223  0000                     # 4468 "C:\Program Files (x86)\Microchip\xc8\v2.00\pic\include\pic18f2550.h"
   224                           RCREG1 equ 0FAEh ;# 
   225  0000                     # 4475 "C:\Program Files (x86)\Microchip\xc8\v2.00\pic\include\pic18f2550.h"
   226                           SPBRG equ 0FAFh ;# 
   227  0000                     # 4480 "C:\Program Files (x86)\Microchip\xc8\v2.00\pic\include\pic18f2550.h"
   228                           SPBRG1 equ 0FAFh ;# 
   229  0000                     # 4487 "C:\Program Files (x86)\Microchip\xc8\v2.00\pic\include\pic18f2550.h"
   230                           SPBRGH equ 0FB0h ;# 
   231  0000                     # 4494 "C:\Program Files (x86)\Microchip\xc8\v2.00\pic\include\pic18f2550.h"
   232                           T3CON equ 0FB1h ;# 
   233  0000                     # 4615 "C:\Program Files (x86)\Microchip\xc8\v2.00\pic\include\pic18f2550.h"
   234                           TMR3 equ 0FB2h ;# 
   235  0000                     # 4622 "C:\Program Files (x86)\Microchip\xc8\v2.00\pic\include\pic18f2550.h"
   236                           TMR3L equ 0FB2h ;# 
   237  0000                     # 4629 "C:\Program Files (x86)\Microchip\xc8\v2.00\pic\include\pic18f2550.h"
   238                           TMR3H equ 0FB3h ;# 
   239  0000                     # 4636 "C:\Program Files (x86)\Microchip\xc8\v2.00\pic\include\pic18f2550.h"
   240                           CMCON equ 0FB4h ;# 
   241  0000                     # 4726 "C:\Program Files (x86)\Microchip\xc8\v2.00\pic\include\pic18f2550.h"
   242                           CVRCON equ 0FB5h ;# 
   243  0000                     # 4811 "C:\Program Files (x86)\Microchip\xc8\v2.00\pic\include\pic18f2550.h"
   244                           ECCP1AS equ 0FB6h ;# 
   245  0000                     # 4816 "C:\Program Files (x86)\Microchip\xc8\v2.00\pic\include\pic18f2550.h"
   246                           CCP1AS equ 0FB6h ;# 
   247  0000                     # 4941 "C:\Program Files (x86)\Microchip\xc8\v2.00\pic\include\pic18f2550.h"
   248                           ECCP1DEL equ 0FB7h ;# 
   249  0000                     # 4946 "C:\Program Files (x86)\Microchip\xc8\v2.00\pic\include\pic18f2550.h"
   250                           CCP1DEL equ 0FB7h ;# 
   251  0000                     # 4981 "C:\Program Files (x86)\Microchip\xc8\v2.00\pic\include\pic18f2550.h"
   252                           BAUDCON equ 0FB8h ;# 
   253  0000                     # 4986 "C:\Program Files (x86)\Microchip\xc8\v2.00\pic\include\pic18f2550.h"
   254                           BAUDCTL equ 0FB8h ;# 
   255  0000                     # 5161 "C:\Program Files (x86)\Microchip\xc8\v2.00\pic\include\pic18f2550.h"
   256                           CCP2CON equ 0FBAh ;# 
   257  0000                     # 5225 "C:\Program Files (x86)\Microchip\xc8\v2.00\pic\include\pic18f2550.h"
   258                           CCPR2 equ 0FBBh ;# 
   259  0000                     # 5232 "C:\Program Files (x86)\Microchip\xc8\v2.00\pic\include\pic18f2550.h"
   260                           CCPR2L equ 0FBBh ;# 
   261  0000                     # 5239 "C:\Program Files (x86)\Microchip\xc8\v2.00\pic\include\pic18f2550.h"
   262                           CCPR2H equ 0FBCh ;# 
   263  0000                     # 5246 "C:\Program Files (x86)\Microchip\xc8\v2.00\pic\include\pic18f2550.h"
   264                           CCP1CON equ 0FBDh ;# 
   265  0000                     # 5310 "C:\Program Files (x86)\Microchip\xc8\v2.00\pic\include\pic18f2550.h"
   266                           CCPR1 equ 0FBEh ;# 
   267  0000                     # 5317 "C:\Program Files (x86)\Microchip\xc8\v2.00\pic\include\pic18f2550.h"
   268                           CCPR1L equ 0FBEh ;# 
   269  0000                     # 5324 "C:\Program Files (x86)\Microchip\xc8\v2.00\pic\include\pic18f2550.h"
   270                           CCPR1H equ 0FBFh ;# 
   271  0000                     # 5331 "C:\Program Files (x86)\Microchip\xc8\v2.00\pic\include\pic18f2550.h"
   272                           ADCON2 equ 0FC0h ;# 
   273  0000                     # 5402 "C:\Program Files (x86)\Microchip\xc8\v2.00\pic\include\pic18f2550.h"
   274                           ADCON1 equ 0FC1h ;# 
   275  0000                     # 5487 "C:\Program Files (x86)\Microchip\xc8\v2.00\pic\include\pic18f2550.h"
   276                           ADCON0 equ 0FC2h ;# 
   277  0000                     # 5606 "C:\Program Files (x86)\Microchip\xc8\v2.00\pic\include\pic18f2550.h"
   278                           ADRES equ 0FC3h ;# 
   279  0000                     # 5613 "C:\Program Files (x86)\Microchip\xc8\v2.00\pic\include\pic18f2550.h"
   280                           ADRESL equ 0FC3h ;# 
   281  0000                     # 5620 "C:\Program Files (x86)\Microchip\xc8\v2.00\pic\include\pic18f2550.h"
   282                           ADRESH equ 0FC4h ;# 
   283  0000                     # 5627 "C:\Program Files (x86)\Microchip\xc8\v2.00\pic\include\pic18f2550.h"
   284                           SSPCON2 equ 0FC5h ;# 
   285  0000                     # 5689 "C:\Program Files (x86)\Microchip\xc8\v2.00\pic\include\pic18f2550.h"
   286                           SSPCON1 equ 0FC6h ;# 
   287  0000                     # 5759 "C:\Program Files (x86)\Microchip\xc8\v2.00\pic\include\pic18f2550.h"
   288                           SSPSTAT equ 0FC7h ;# 
   289  0000                     # 6007 "C:\Program Files (x86)\Microchip\xc8\v2.00\pic\include\pic18f2550.h"
   290                           SSPADD equ 0FC8h ;# 
   291  0000                     # 6014 "C:\Program Files (x86)\Microchip\xc8\v2.00\pic\include\pic18f2550.h"
   292                           SSPBUF equ 0FC9h ;# 
   293  0000                     # 6021 "C:\Program Files (x86)\Microchip\xc8\v2.00\pic\include\pic18f2550.h"
   294                           T2CON equ 0FCAh ;# 
   295  0000                     # 6119 "C:\Program Files (x86)\Microchip\xc8\v2.00\pic\include\pic18f2550.h"
   296                           PR2 equ 0FCBh ;# 
   297  0000                     # 6124 "C:\Program Files (x86)\Microchip\xc8\v2.00\pic\include\pic18f2550.h"
   298                           MEMCON equ 0FCBh ;# 
   299  0000                     # 6229 "C:\Program Files (x86)\Microchip\xc8\v2.00\pic\include\pic18f2550.h"
   300                           TMR2 equ 0FCCh ;# 
   301  0000                     # 6236 "C:\Program Files (x86)\Microchip\xc8\v2.00\pic\include\pic18f2550.h"
   302                           T1CON equ 0FCDh ;# 
   303  0000                     # 6339 "C:\Program Files (x86)\Microchip\xc8\v2.00\pic\include\pic18f2550.h"
   304                           TMR1 equ 0FCEh ;# 
   305  0000                     # 6346 "C:\Program Files (x86)\Microchip\xc8\v2.00\pic\include\pic18f2550.h"
   306                           TMR1L equ 0FCEh ;# 
   307  0000                     # 6353 "C:\Program Files (x86)\Microchip\xc8\v2.00\pic\include\pic18f2550.h"
   308                           TMR1H equ 0FCFh ;# 
   309  0000                     # 6360 "C:\Program Files (x86)\Microchip\xc8\v2.00\pic\include\pic18f2550.h"
   310                           RCON equ 0FD0h ;# 
   311  0000                     # 6509 "C:\Program Files (x86)\Microchip\xc8\v2.00\pic\include\pic18f2550.h"
   312                           WDTCON equ 0FD1h ;# 
   313  0000                     # 6537 "C:\Program Files (x86)\Microchip\xc8\v2.00\pic\include\pic18f2550.h"
   314                           HLVDCON equ 0FD2h ;# 
   315  0000                     # 6542 "C:\Program Files (x86)\Microchip\xc8\v2.00\pic\include\pic18f2550.h"
   316                           LVDCON equ 0FD2h ;# 
   317  0000                     # 6807 "C:\Program Files (x86)\Microchip\xc8\v2.00\pic\include\pic18f2550.h"
   318                           OSCCON equ 0FD3h ;# 
   319  0000                     # 6890 "C:\Program Files (x86)\Microchip\xc8\v2.00\pic\include\pic18f2550.h"
   320                           T0CON equ 0FD5h ;# 
   321  0000                     # 6960 "C:\Program Files (x86)\Microchip\xc8\v2.00\pic\include\pic18f2550.h"
   322                           TMR0 equ 0FD6h ;# 
   323  0000                     # 6967 "C:\Program Files (x86)\Microchip\xc8\v2.00\pic\include\pic18f2550.h"
   324                           TMR0L equ 0FD6h ;# 
   325  0000                     # 6974 "C:\Program Files (x86)\Microchip\xc8\v2.00\pic\include\pic18f2550.h"
   326                           TMR0H equ 0FD7h ;# 
   327  0000                     # 6981 "C:\Program Files (x86)\Microchip\xc8\v2.00\pic\include\pic18f2550.h"
   328                           STATUS equ 0FD8h ;# 
   329  0000                     # 7052 "C:\Program Files (x86)\Microchip\xc8\v2.00\pic\include\pic18f2550.h"
   330                           FSR2 equ 0FD9h ;# 
   331  0000                     # 7059 "C:\Program Files (x86)\Microchip\xc8\v2.00\pic\include\pic18f2550.h"
   332                           FSR2L equ 0FD9h ;# 
   333  0000                     # 7066 "C:\Program Files (x86)\Microchip\xc8\v2.00\pic\include\pic18f2550.h"
   334                           FSR2H equ 0FDAh ;# 
   335  0000                     # 7073 "C:\Program Files (x86)\Microchip\xc8\v2.00\pic\include\pic18f2550.h"
   336                           PLUSW2 equ 0FDBh ;# 
   337  0000                     # 7080 "C:\Program Files (x86)\Microchip\xc8\v2.00\pic\include\pic18f2550.h"
   338                           PREINC2 equ 0FDCh ;# 
   339  0000                     # 7087 "C:\Program Files (x86)\Microchip\xc8\v2.00\pic\include\pic18f2550.h"
   340                           POSTDEC2 equ 0FDDh ;# 
   341  0000                     # 7094 "C:\Program Files (x86)\Microchip\xc8\v2.00\pic\include\pic18f2550.h"
   342                           POSTINC2 equ 0FDEh ;# 
   343  0000                     # 7101 "C:\Program Files (x86)\Microchip\xc8\v2.00\pic\include\pic18f2550.h"
   344                           INDF2 equ 0FDFh ;# 
   345  0000                     # 7108 "C:\Program Files (x86)\Microchip\xc8\v2.00\pic\include\pic18f2550.h"
   346                           BSR equ 0FE0h ;# 
   347  0000                     # 7115 "C:\Program Files (x86)\Microchip\xc8\v2.00\pic\include\pic18f2550.h"
   348                           FSR1 equ 0FE1h ;# 
   349  0000                     # 7122 "C:\Program Files (x86)\Microchip\xc8\v2.00\pic\include\pic18f2550.h"
   350                           FSR1L equ 0FE1h ;# 
   351  0000                     # 7129 "C:\Program Files (x86)\Microchip\xc8\v2.00\pic\include\pic18f2550.h"
   352                           FSR1H equ 0FE2h ;# 
   353  0000                     # 7136 "C:\Program Files (x86)\Microchip\xc8\v2.00\pic\include\pic18f2550.h"
   354                           PLUSW1 equ 0FE3h ;# 
   355  0000                     # 7143 "C:\Program Files (x86)\Microchip\xc8\v2.00\pic\include\pic18f2550.h"
   356                           PREINC1 equ 0FE4h ;# 
   357  0000                     # 7150 "C:\Program Files (x86)\Microchip\xc8\v2.00\pic\include\pic18f2550.h"
   358                           POSTDEC1 equ 0FE5h ;# 
   359  0000                     # 7157 "C:\Program Files (x86)\Microchip\xc8\v2.00\pic\include\pic18f2550.h"
   360                           POSTINC1 equ 0FE6h ;# 
   361  0000                     # 7164 "C:\Program Files (x86)\Microchip\xc8\v2.00\pic\include\pic18f2550.h"
   362                           INDF1 equ 0FE7h ;# 
   363  0000                     # 7171 "C:\Program Files (x86)\Microchip\xc8\v2.00\pic\include\pic18f2550.h"
   364                           WREG equ 0FE8h ;# 
   365  0000                     # 7178 "C:\Program Files (x86)\Microchip\xc8\v2.00\pic\include\pic18f2550.h"
   366                           FSR0 equ 0FE9h ;# 
   367  0000                     # 7185 "C:\Program Files (x86)\Microchip\xc8\v2.00\pic\include\pic18f2550.h"
   368                           FSR0L equ 0FE9h ;# 
   369  0000                     # 7192 "C:\Program Files (x86)\Microchip\xc8\v2.00\pic\include\pic18f2550.h"
   370                           FSR0H equ 0FEAh ;# 
   371  0000                     # 7199 "C:\Program Files (x86)\Microchip\xc8\v2.00\pic\include\pic18f2550.h"
   372                           PLUSW0 equ 0FEBh ;# 
   373  0000                     # 7206 "C:\Program Files (x86)\Microchip\xc8\v2.00\pic\include\pic18f2550.h"
   374                           PREINC0 equ 0FECh ;# 
   375  0000                     # 7213 "C:\Program Files (x86)\Microchip\xc8\v2.00\pic\include\pic18f2550.h"
   376                           POSTDEC0 equ 0FEDh ;# 
   377  0000                     # 7220 "C:\Program Files (x86)\Microchip\xc8\v2.00\pic\include\pic18f2550.h"
   378                           POSTINC0 equ 0FEEh ;# 
   379  0000                     # 7227 "C:\Program Files (x86)\Microchip\xc8\v2.00\pic\include\pic18f2550.h"
   380                           INDF0 equ 0FEFh ;# 
   381  0000                     # 7234 "C:\Program Files (x86)\Microchip\xc8\v2.00\pic\include\pic18f2550.h"
   382                           INTCON3 equ 0FF0h ;# 
   383  0000                     # 7326 "C:\Program Files (x86)\Microchip\xc8\v2.00\pic\include\pic18f2550.h"
   384                           INTCON2 equ 0FF1h ;# 
   385  0000                     # 7403 "C:\Program Files (x86)\Microchip\xc8\v2.00\pic\include\pic18f2550.h"
   386                           INTCON equ 0FF2h ;# 
   387  0000                     # 7520 "C:\Program Files (x86)\Microchip\xc8\v2.00\pic\include\pic18f2550.h"
   388                           PROD equ 0FF3h ;# 
   389  0000                     # 7527 "C:\Program Files (x86)\Microchip\xc8\v2.00\pic\include\pic18f2550.h"
   390                           PRODL equ 0FF3h ;# 
   391  0000                     # 7534 "C:\Program Files (x86)\Microchip\xc8\v2.00\pic\include\pic18f2550.h"
   392                           PRODH equ 0FF4h ;# 
   393  0000                     # 7541 "C:\Program Files (x86)\Microchip\xc8\v2.00\pic\include\pic18f2550.h"
   394                           TABLAT equ 0FF5h ;# 
   395  0000                     # 7550 "C:\Program Files (x86)\Microchip\xc8\v2.00\pic\include\pic18f2550.h"
   396                           TBLPTR equ 0FF6h ;# 
   397  0000                     # 7557 "C:\Program Files (x86)\Microchip\xc8\v2.00\pic\include\pic18f2550.h"
   398                           TBLPTRL equ 0FF6h ;# 
   399  0000                     # 7564 "C:\Program Files (x86)\Microchip\xc8\v2.00\pic\include\pic18f2550.h"
   400                           TBLPTRH equ 0FF7h ;# 
   401  0000                     # 7571 "C:\Program Files (x86)\Microchip\xc8\v2.00\pic\include\pic18f2550.h"
   402                           TBLPTRU equ 0FF8h ;# 
   403  0000                     # 7580 "C:\Program Files (x86)\Microchip\xc8\v2.00\pic\include\pic18f2550.h"
   404                           PCLAT equ 0FF9h ;# 
   405  0000                     # 7587 "C:\Program Files (x86)\Microchip\xc8\v2.00\pic\include\pic18f2550.h"
   406                           PC equ 0FF9h ;# 
   407  0000                     # 7594 "C:\Program Files (x86)\Microchip\xc8\v2.00\pic\include\pic18f2550.h"
   408                           PCL equ 0FF9h ;# 
   409  0000                     # 7601 "C:\Program Files (x86)\Microchip\xc8\v2.00\pic\include\pic18f2550.h"
   410                           PCLATH equ 0FFAh ;# 
   411  0000                     # 7608 "C:\Program Files (x86)\Microchip\xc8\v2.00\pic\include\pic18f2550.h"
   412                           PCLATU equ 0FFBh ;# 
   413  0000                     # 7615 "C:\Program Files (x86)\Microchip\xc8\v2.00\pic\include\pic18f2550.h"
   414                           STKPTR equ 0FFCh ;# 
   415  0000                     # 7691 "C:\Program Files (x86)\Microchip\xc8\v2.00\pic\include\pic18f2550.h"
   416                           TOS equ 0FFDh ;# 
   417  0000                     # 7698 "C:\Program Files (x86)\Microchip\xc8\v2.00\pic\include\pic18f2550.h"
   418                           TOSL equ 0FFDh ;# 
   419  0000                     # 7705 "C:\Program Files (x86)\Microchip\xc8\v2.00\pic\include\pic18f2550.h"
   420                           TOSH equ 0FFEh ;# 
   421  0000                     # 7712 "C:\Program Files (x86)\Microchip\xc8\v2.00\pic\include\pic18f2550.h"
   422                           TOSU equ 0FFFh ;# 
   423  0000                     # 54 "C:\Program Files (x86)\Microchip\xc8\v2.00\pic\include\pic18f2550.h"
   424                           UFRM equ 0F66h ;# 
   425  0000                     # 61 "C:\Program Files (x86)\Microchip\xc8\v2.00\pic\include\pic18f2550.h"
   426                           UFRML equ 0F66h ;# 
   427  0000                     # 139 "C:\Program Files (x86)\Microchip\xc8\v2.00\pic\include\pic18f2550.h"
   428                           UFRMH equ 0F67h ;# 
   429  0000                     # 179 "C:\Program Files (x86)\Microchip\xc8\v2.00\pic\include\pic18f2550.h"
   430                           UIR equ 0F68h ;# 
   431  0000                     # 235 "C:\Program Files (x86)\Microchip\xc8\v2.00\pic\include\pic18f2550.h"
   432                           UIE equ 0F69h ;# 
   433  0000                     # 291 "C:\Program Files (x86)\Microchip\xc8\v2.00\pic\include\pic18f2550.h"
   434                           UEIR equ 0F6Ah ;# 
   435  0000                     # 342 "C:\Program Files (x86)\Microchip\xc8\v2.00\pic\include\pic18f2550.h"
   436                           UEIE equ 0F6Bh ;# 
   437  0000                     # 393 "C:\Program Files (x86)\Microchip\xc8\v2.00\pic\include\pic18f2550.h"
   438                           USTAT equ 0F6Ch ;# 
   439  0000                     # 453 "C:\Program Files (x86)\Microchip\xc8\v2.00\pic\include\pic18f2550.h"
   440                           UCON equ 0F6Dh ;# 
   441  0000                     # 504 "C:\Program Files (x86)\Microchip\xc8\v2.00\pic\include\pic18f2550.h"
   442                           UADDR equ 0F6Eh ;# 
   443  0000                     # 568 "C:\Program Files (x86)\Microchip\xc8\v2.00\pic\include\pic18f2550.h"
   444                           UCFG equ 0F6Fh ;# 
   445  0000                     # 647 "C:\Program Files (x86)\Microchip\xc8\v2.00\pic\include\pic18f2550.h"
   446                           UEP0 equ 0F70h ;# 
   447  0000                     # 755 "C:\Program Files (x86)\Microchip\xc8\v2.00\pic\include\pic18f2550.h"
   448                           UEP1 equ 0F71h ;# 
   449  0000                     # 863 "C:\Program Files (x86)\Microchip\xc8\v2.00\pic\include\pic18f2550.h"
   450                           UEP2 equ 0F72h ;# 
   451  0000                     # 971 "C:\Program Files (x86)\Microchip\xc8\v2.00\pic\include\pic18f2550.h"
   452                           UEP3 equ 0F73h ;# 
   453  0000                     # 1079 "C:\Program Files (x86)\Microchip\xc8\v2.00\pic\include\pic18f2550.h"
   454                           UEP4 equ 0F74h ;# 
   455  0000                     # 1187 "C:\Program Files (x86)\Microchip\xc8\v2.00\pic\include\pic18f2550.h"
   456                           UEP5 equ 0F75h ;# 
   457  0000                     # 1295 "C:\Program Files (x86)\Microchip\xc8\v2.00\pic\include\pic18f2550.h"
   458                           UEP6 equ 0F76h ;# 
   459  0000                     # 1403 "C:\Program Files (x86)\Microchip\xc8\v2.00\pic\include\pic18f2550.h"
   460                           UEP7 equ 0F77h ;# 
   461  0000                     # 1511 "C:\Program Files (x86)\Microchip\xc8\v2.00\pic\include\pic18f2550.h"
   462                           UEP8 equ 0F78h ;# 
   463  0000                     # 1587 "C:\Program Files (x86)\Microchip\xc8\v2.00\pic\include\pic18f2550.h"
   464                           UEP9 equ 0F79h ;# 
   465  0000                     # 1663 "C:\Program Files (x86)\Microchip\xc8\v2.00\pic\include\pic18f2550.h"
   466                           UEP10 equ 0F7Ah ;# 
   467  0000                     # 1739 "C:\Program Files (x86)\Microchip\xc8\v2.00\pic\include\pic18f2550.h"
   468                           UEP11 equ 0F7Bh ;# 
   469  0000                     # 1815 "C:\Program Files (x86)\Microchip\xc8\v2.00\pic\include\pic18f2550.h"
   470                           UEP12 equ 0F7Ch ;# 
   471  0000                     # 1891 "C:\Program Files (x86)\Microchip\xc8\v2.00\pic\include\pic18f2550.h"
   472                           UEP13 equ 0F7Dh ;# 
   473  0000                     # 1967 "C:\Program Files (x86)\Microchip\xc8\v2.00\pic\include\pic18f2550.h"
   474                           UEP14 equ 0F7Eh ;# 
   475  0000                     # 2043 "C:\Program Files (x86)\Microchip\xc8\v2.00\pic\include\pic18f2550.h"
   476                           UEP15 equ 0F7Fh ;# 
   477  0000                     # 2119 "C:\Program Files (x86)\Microchip\xc8\v2.00\pic\include\pic18f2550.h"
   478                           PORTA equ 0F80h ;# 
   479  0000                     # 2258 "C:\Program Files (x86)\Microchip\xc8\v2.00\pic\include\pic18f2550.h"
   480                           PORTB equ 0F81h ;# 
   481  0000                     # 2368 "C:\Program Files (x86)\Microchip\xc8\v2.00\pic\include\pic18f2550.h"
   482                           PORTC equ 0F82h ;# 
   483  0000                     # 2510 "C:\Program Files (x86)\Microchip\xc8\v2.00\pic\include\pic18f2550.h"
   484                           PORTE equ 0F84h ;# 
   485  0000                     # 2549 "C:\Program Files (x86)\Microchip\xc8\v2.00\pic\include\pic18f2550.h"
   486                           LATA equ 0F89h ;# 
   487  0000                     # 2649 "C:\Program Files (x86)\Microchip\xc8\v2.00\pic\include\pic18f2550.h"
   488                           LATB equ 0F8Ah ;# 
   489  0000                     # 2761 "C:\Program Files (x86)\Microchip\xc8\v2.00\pic\include\pic18f2550.h"
   490                           LATC equ 0F8Bh ;# 
   491  0000                     # 2839 "C:\Program Files (x86)\Microchip\xc8\v2.00\pic\include\pic18f2550.h"
   492                           TRISA equ 0F92h ;# 
   493  0000                     # 2844 "C:\Program Files (x86)\Microchip\xc8\v2.00\pic\include\pic18f2550.h"
   494                           DDRA equ 0F92h ;# 
   495  0000                     # 3037 "C:\Program Files (x86)\Microchip\xc8\v2.00\pic\include\pic18f2550.h"
   496                           TRISB equ 0F93h ;# 
   497  0000                     # 3042 "C:\Program Files (x86)\Microchip\xc8\v2.00\pic\include\pic18f2550.h"
   498                           DDRB equ 0F93h ;# 
   499  0000                     # 3259 "C:\Program Files (x86)\Microchip\xc8\v2.00\pic\include\pic18f2550.h"
   500                           TRISC equ 0F94h ;# 
   501  0000                     # 3264 "C:\Program Files (x86)\Microchip\xc8\v2.00\pic\include\pic18f2550.h"
   502                           DDRC equ 0F94h ;# 
   503  0000                     # 3413 "C:\Program Files (x86)\Microchip\xc8\v2.00\pic\include\pic18f2550.h"
   504                           OSCTUNE equ 0F9Bh ;# 
   505  0000                     # 3472 "C:\Program Files (x86)\Microchip\xc8\v2.00\pic\include\pic18f2550.h"
   506                           PIE1 equ 0F9Dh ;# 
   507  0000                     # 3543 "C:\Program Files (x86)\Microchip\xc8\v2.00\pic\include\pic18f2550.h"
   508                           PIR1 equ 0F9Eh ;# 
   509  0000                     # 3614 "C:\Program Files (x86)\Microchip\xc8\v2.00\pic\include\pic18f2550.h"
   510                           IPR1 equ 0F9Fh ;# 
   511  0000                     # 3685 "C:\Program Files (x86)\Microchip\xc8\v2.00\pic\include\pic18f2550.h"
   512                           PIE2 equ 0FA0h ;# 
   513  0000                     # 3756 "C:\Program Files (x86)\Microchip\xc8\v2.00\pic\include\pic18f2550.h"
   514                           PIR2 equ 0FA1h ;# 
   515  0000                     # 3827 "C:\Program Files (x86)\Microchip\xc8\v2.00\pic\include\pic18f2550.h"
   516                           IPR2 equ 0FA2h ;# 
   517  0000                     # 3898 "C:\Program Files (x86)\Microchip\xc8\v2.00\pic\include\pic18f2550.h"
   518                           EECON1 equ 0FA6h ;# 
   519  0000                     # 3964 "C:\Program Files (x86)\Microchip\xc8\v2.00\pic\include\pic18f2550.h"
   520                           EECON2 equ 0FA7h ;# 
   521  0000                     # 3971 "C:\Program Files (x86)\Microchip\xc8\v2.00\pic\include\pic18f2550.h"
   522                           EEDATA equ 0FA8h ;# 
   523  0000                     # 3978 "C:\Program Files (x86)\Microchip\xc8\v2.00\pic\include\pic18f2550.h"
   524                           EEADR equ 0FA9h ;# 
   525  0000                     # 3985 "C:\Program Files (x86)\Microchip\xc8\v2.00\pic\include\pic18f2550.h"
   526                           RCSTA equ 0FABh ;# 
   527  0000                     # 3990 "C:\Program Files (x86)\Microchip\xc8\v2.00\pic\include\pic18f2550.h"
   528                           RCSTA1 equ 0FABh ;# 
   529  0000                     # 4195 "C:\Program Files (x86)\Microchip\xc8\v2.00\pic\include\pic18f2550.h"
   530                           TXSTA equ 0FACh ;# 
   531  0000                     # 4200 "C:\Program Files (x86)\Microchip\xc8\v2.00\pic\include\pic18f2550.h"
   532                           TXSTA1 equ 0FACh ;# 
   533  0000                     # 4451 "C:\Program Files (x86)\Microchip\xc8\v2.00\pic\include\pic18f2550.h"
   534                           TXREG equ 0FADh ;# 
   535  0000                     # 4456 "C:\Program Files (x86)\Microchip\xc8\v2.00\pic\include\pic18f2550.h"
   536                           TXREG1 equ 0FADh ;# 
   537  0000                     # 4463 "C:\Program Files (x86)\Microchip\xc8\v2.00\pic\include\pic18f2550.h"
   538                           RCREG equ 0FAEh ;# 
   539  0000                     # 4468 "C:\Program Files (x86)\Microchip\xc8\v2.00\pic\include\pic18f2550.h"
   540                           RCREG1 equ 0FAEh ;# 
   541  0000                     # 4475 "C:\Program Files (x86)\Microchip\xc8\v2.00\pic\include\pic18f2550.h"
   542                           SPBRG equ 0FAFh ;# 
   543  0000                     # 4480 "C:\Program Files (x86)\Microchip\xc8\v2.00\pic\include\pic18f2550.h"
   544                           SPBRG1 equ 0FAFh ;# 
   545  0000                     # 4487 "C:\Program Files (x86)\Microchip\xc8\v2.00\pic\include\pic18f2550.h"
   546                           SPBRGH equ 0FB0h ;# 
   547  0000                     # 4494 "C:\Program Files (x86)\Microchip\xc8\v2.00\pic\include\pic18f2550.h"
   548                           T3CON equ 0FB1h ;# 
   549  0000                     # 4615 "C:\Program Files (x86)\Microchip\xc8\v2.00\pic\include\pic18f2550.h"
   550                           TMR3 equ 0FB2h ;# 
   551  0000                     # 4622 "C:\Program Files (x86)\Microchip\xc8\v2.00\pic\include\pic18f2550.h"
   552                           TMR3L equ 0FB2h ;# 
   553  0000                     # 4629 "C:\Program Files (x86)\Microchip\xc8\v2.00\pic\include\pic18f2550.h"
   554                           TMR3H equ 0FB3h ;# 
   555  0000                     # 4636 "C:\Program Files (x86)\Microchip\xc8\v2.00\pic\include\pic18f2550.h"
   556                           CMCON equ 0FB4h ;# 
   557  0000                     # 4726 "C:\Program Files (x86)\Microchip\xc8\v2.00\pic\include\pic18f2550.h"
   558                           CVRCON equ 0FB5h ;# 
   559  0000                     # 4811 "C:\Program Files (x86)\Microchip\xc8\v2.00\pic\include\pic18f2550.h"
   560                           ECCP1AS equ 0FB6h ;# 
   561  0000                     # 4816 "C:\Program Files (x86)\Microchip\xc8\v2.00\pic\include\pic18f2550.h"
   562                           CCP1AS equ 0FB6h ;# 
   563  0000                     # 4941 "C:\Program Files (x86)\Microchip\xc8\v2.00\pic\include\pic18f2550.h"
   564                           ECCP1DEL equ 0FB7h ;# 
   565  0000                     # 4946 "C:\Program Files (x86)\Microchip\xc8\v2.00\pic\include\pic18f2550.h"
   566                           CCP1DEL equ 0FB7h ;# 
   567  0000                     # 4981 "C:\Program Files (x86)\Microchip\xc8\v2.00\pic\include\pic18f2550.h"
   568                           BAUDCON equ 0FB8h ;# 
   569  0000                     # 4986 "C:\Program Files (x86)\Microchip\xc8\v2.00\pic\include\pic18f2550.h"
   570                           BAUDCTL equ 0FB8h ;# 
   571  0000                     # 5161 "C:\Program Files (x86)\Microchip\xc8\v2.00\pic\include\pic18f2550.h"
   572                           CCP2CON equ 0FBAh ;# 
   573  0000                     # 5225 "C:\Program Files (x86)\Microchip\xc8\v2.00\pic\include\pic18f2550.h"
   574                           CCPR2 equ 0FBBh ;# 
   575  0000                     # 5232 "C:\Program Files (x86)\Microchip\xc8\v2.00\pic\include\pic18f2550.h"
   576                           CCPR2L equ 0FBBh ;# 
   577  0000                     # 5239 "C:\Program Files (x86)\Microchip\xc8\v2.00\pic\include\pic18f2550.h"
   578                           CCPR2H equ 0FBCh ;# 
   579  0000                     # 5246 "C:\Program Files (x86)\Microchip\xc8\v2.00\pic\include\pic18f2550.h"
   580                           CCP1CON equ 0FBDh ;# 
   581  0000                     # 5310 "C:\Program Files (x86)\Microchip\xc8\v2.00\pic\include\pic18f2550.h"
   582                           CCPR1 equ 0FBEh ;# 
   583  0000                     # 5317 "C:\Program Files (x86)\Microchip\xc8\v2.00\pic\include\pic18f2550.h"
   584                           CCPR1L equ 0FBEh ;# 
   585  0000                     # 5324 "C:\Program Files (x86)\Microchip\xc8\v2.00\pic\include\pic18f2550.h"
   586                           CCPR1H equ 0FBFh ;# 
   587  0000                     # 5331 "C:\Program Files (x86)\Microchip\xc8\v2.00\pic\include\pic18f2550.h"
   588                           ADCON2 equ 0FC0h ;# 
   589  0000                     # 5402 "C:\Program Files (x86)\Microchip\xc8\v2.00\pic\include\pic18f2550.h"
   590                           ADCON1 equ 0FC1h ;# 
   591  0000                     # 5487 "C:\Program Files (x86)\Microchip\xc8\v2.00\pic\include\pic18f2550.h"
   592                           ADCON0 equ 0FC2h ;# 
   593  0000                     # 5606 "C:\Program Files (x86)\Microchip\xc8\v2.00\pic\include\pic18f2550.h"
   594                           ADRES equ 0FC3h ;# 
   595  0000                     # 5613 "C:\Program Files (x86)\Microchip\xc8\v2.00\pic\include\pic18f2550.h"
   596                           ADRESL equ 0FC3h ;# 
   597  0000                     # 5620 "C:\Program Files (x86)\Microchip\xc8\v2.00\pic\include\pic18f2550.h"
   598                           ADRESH equ 0FC4h ;# 
   599  0000                     # 5627 "C:\Program Files (x86)\Microchip\xc8\v2.00\pic\include\pic18f2550.h"
   600                           SSPCON2 equ 0FC5h ;# 
   601  0000                     # 5689 "C:\Program Files (x86)\Microchip\xc8\v2.00\pic\include\pic18f2550.h"
   602                           SSPCON1 equ 0FC6h ;# 
   603  0000                     # 5759 "C:\Program Files (x86)\Microchip\xc8\v2.00\pic\include\pic18f2550.h"
   604                           SSPSTAT equ 0FC7h ;# 
   605  0000                     # 6007 "C:\Program Files (x86)\Microchip\xc8\v2.00\pic\include\pic18f2550.h"
   606                           SSPADD equ 0FC8h ;# 
   607  0000                     # 6014 "C:\Program Files (x86)\Microchip\xc8\v2.00\pic\include\pic18f2550.h"
   608                           SSPBUF equ 0FC9h ;# 
   609  0000                     # 6021 "C:\Program Files (x86)\Microchip\xc8\v2.00\pic\include\pic18f2550.h"
   610                           T2CON equ 0FCAh ;# 
   611  0000                     # 6119 "C:\Program Files (x86)\Microchip\xc8\v2.00\pic\include\pic18f2550.h"
   612                           PR2 equ 0FCBh ;# 
   613  0000                     # 6124 "C:\Program Files (x86)\Microchip\xc8\v2.00\pic\include\pic18f2550.h"
   614                           MEMCON equ 0FCBh ;# 
   615  0000                     # 6229 "C:\Program Files (x86)\Microchip\xc8\v2.00\pic\include\pic18f2550.h"
   616                           TMR2 equ 0FCCh ;# 
   617  0000                     # 6236 "C:\Program Files (x86)\Microchip\xc8\v2.00\pic\include\pic18f2550.h"
   618                           T1CON equ 0FCDh ;# 
   619  0000                     # 6339 "C:\Program Files (x86)\Microchip\xc8\v2.00\pic\include\pic18f2550.h"
   620                           TMR1 equ 0FCEh ;# 
   621  0000                     # 6346 "C:\Program Files (x86)\Microchip\xc8\v2.00\pic\include\pic18f2550.h"
   622                           TMR1L equ 0FCEh ;# 
   623  0000                     # 6353 "C:\Program Files (x86)\Microchip\xc8\v2.00\pic\include\pic18f2550.h"
   624                           TMR1H equ 0FCFh ;# 
   625  0000                     # 6360 "C:\Program Files (x86)\Microchip\xc8\v2.00\pic\include\pic18f2550.h"
   626                           RCON equ 0FD0h ;# 
   627  0000                     # 6509 "C:\Program Files (x86)\Microchip\xc8\v2.00\pic\include\pic18f2550.h"
   628                           WDTCON equ 0FD1h ;# 
   629  0000                     # 6537 "C:\Program Files (x86)\Microchip\xc8\v2.00\pic\include\pic18f2550.h"
   630                           HLVDCON equ 0FD2h ;# 
   631  0000                     # 6542 "C:\Program Files (x86)\Microchip\xc8\v2.00\pic\include\pic18f2550.h"
   632                           LVDCON equ 0FD2h ;# 
   633  0000                     # 6807 "C:\Program Files (x86)\Microchip\xc8\v2.00\pic\include\pic18f2550.h"
   634                           OSCCON equ 0FD3h ;# 
   635  0000                     # 6890 "C:\Program Files (x86)\Microchip\xc8\v2.00\pic\include\pic18f2550.h"
   636                           T0CON equ 0FD5h ;# 
   637  0000                     # 6960 "C:\Program Files (x86)\Microchip\xc8\v2.00\pic\include\pic18f2550.h"
   638                           TMR0 equ 0FD6h ;# 
   639  0000                     # 6967 "C:\Program Files (x86)\Microchip\xc8\v2.00\pic\include\pic18f2550.h"
   640                           TMR0L equ 0FD6h ;# 
   641  0000                     # 6974 "C:\Program Files (x86)\Microchip\xc8\v2.00\pic\include\pic18f2550.h"
   642                           TMR0H equ 0FD7h ;# 
   643  0000                     # 6981 "C:\Program Files (x86)\Microchip\xc8\v2.00\pic\include\pic18f2550.h"
   644                           STATUS equ 0FD8h ;# 
   645  0000                     # 7052 "C:\Program Files (x86)\Microchip\xc8\v2.00\pic\include\pic18f2550.h"
   646                           FSR2 equ 0FD9h ;# 
   647  0000                     # 7059 "C:\Program Files (x86)\Microchip\xc8\v2.00\pic\include\pic18f2550.h"
   648                           FSR2L equ 0FD9h ;# 
   649  0000                     # 7066 "C:\Program Files (x86)\Microchip\xc8\v2.00\pic\include\pic18f2550.h"
   650                           FSR2H equ 0FDAh ;# 
   651  0000                     # 7073 "C:\Program Files (x86)\Microchip\xc8\v2.00\pic\include\pic18f2550.h"
   652                           PLUSW2 equ 0FDBh ;# 
   653  0000                     # 7080 "C:\Program Files (x86)\Microchip\xc8\v2.00\pic\include\pic18f2550.h"
   654                           PREINC2 equ 0FDCh ;# 
   655  0000                     # 7087 "C:\Program Files (x86)\Microchip\xc8\v2.00\pic\include\pic18f2550.h"
   656                           POSTDEC2 equ 0FDDh ;# 
   657  0000                     # 7094 "C:\Program Files (x86)\Microchip\xc8\v2.00\pic\include\pic18f2550.h"
   658                           POSTINC2 equ 0FDEh ;# 
   659  0000                     # 7101 "C:\Program Files (x86)\Microchip\xc8\v2.00\pic\include\pic18f2550.h"
   660                           INDF2 equ 0FDFh ;# 
   661  0000                     # 7108 "C:\Program Files (x86)\Microchip\xc8\v2.00\pic\include\pic18f2550.h"
   662                           BSR equ 0FE0h ;# 
   663  0000                     # 7115 "C:\Program Files (x86)\Microchip\xc8\v2.00\pic\include\pic18f2550.h"
   664                           FSR1 equ 0FE1h ;# 
   665  0000                     # 7122 "C:\Program Files (x86)\Microchip\xc8\v2.00\pic\include\pic18f2550.h"
   666                           FSR1L equ 0FE1h ;# 
   667  0000                     # 7129 "C:\Program Files (x86)\Microchip\xc8\v2.00\pic\include\pic18f2550.h"
   668                           FSR1H equ 0FE2h ;# 
   669  0000                     # 7136 "C:\Program Files (x86)\Microchip\xc8\v2.00\pic\include\pic18f2550.h"
   670                           PLUSW1 equ 0FE3h ;# 
   671  0000                     # 7143 "C:\Program Files (x86)\Microchip\xc8\v2.00\pic\include\pic18f2550.h"
   672                           PREINC1 equ 0FE4h ;# 
   673  0000                     # 7150 "C:\Program Files (x86)\Microchip\xc8\v2.00\pic\include\pic18f2550.h"
   674                           POSTDEC1 equ 0FE5h ;# 
   675  0000                     # 7157 "C:\Program Files (x86)\Microchip\xc8\v2.00\pic\include\pic18f2550.h"
   676                           POSTINC1 equ 0FE6h ;# 
   677  0000                     # 7164 "C:\Program Files (x86)\Microchip\xc8\v2.00\pic\include\pic18f2550.h"
   678                           INDF1 equ 0FE7h ;# 
   679  0000                     # 7171 "C:\Program Files (x86)\Microchip\xc8\v2.00\pic\include\pic18f2550.h"
   680                           WREG equ 0FE8h ;# 
   681  0000                     # 7178 "C:\Program Files (x86)\Microchip\xc8\v2.00\pic\include\pic18f2550.h"
   682                           FSR0 equ 0FE9h ;# 
   683  0000                     # 7185 "C:\Program Files (x86)\Microchip\xc8\v2.00\pic\include\pic18f2550.h"
   684                           FSR0L equ 0FE9h ;# 
   685  0000                     # 7192 "C:\Program Files (x86)\Microchip\xc8\v2.00\pic\include\pic18f2550.h"
   686                           FSR0H equ 0FEAh ;# 
   687  0000                     # 7199 "C:\Program Files (x86)\Microchip\xc8\v2.00\pic\include\pic18f2550.h"
   688                           PLUSW0 equ 0FEBh ;# 
   689  0000                     # 7206 "C:\Program Files (x86)\Microchip\xc8\v2.00\pic\include\pic18f2550.h"
   690                           PREINC0 equ 0FECh ;# 
   691  0000                     # 7213 "C:\Program Files (x86)\Microchip\xc8\v2.00\pic\include\pic18f2550.h"
   692                           POSTDEC0 equ 0FEDh ;# 
   693  0000                     # 7220 "C:\Program Files (x86)\Microchip\xc8\v2.00\pic\include\pic18f2550.h"
   694                           POSTINC0 equ 0FEEh ;# 
   695  0000                     # 7227 "C:\Program Files (x86)\Microchip\xc8\v2.00\pic\include\pic18f2550.h"
   696                           INDF0 equ 0FEFh ;# 
   697  0000                     # 7234 "C:\Program Files (x86)\Microchip\xc8\v2.00\pic\include\pic18f2550.h"
   698                           INTCON3 equ 0FF0h ;# 
   699  0000                     # 7326 "C:\Program Files (x86)\Microchip\xc8\v2.00\pic\include\pic18f2550.h"
   700                           INTCON2 equ 0FF1h ;# 
   701  0000                     # 7403 "C:\Program Files (x86)\Microchip\xc8\v2.00\pic\include\pic18f2550.h"
   702                           INTCON equ 0FF2h ;# 
   703  0000                     # 7520 "C:\Program Files (x86)\Microchip\xc8\v2.00\pic\include\pic18f2550.h"
   704                           PROD equ 0FF3h ;# 
   705  0000                     # 7527 "C:\Program Files (x86)\Microchip\xc8\v2.00\pic\include\pic18f2550.h"
   706                           PRODL equ 0FF3h ;# 
   707  0000                     # 7534 "C:\Program Files (x86)\Microchip\xc8\v2.00\pic\include\pic18f2550.h"
   708                           PRODH equ 0FF4h ;# 
   709  0000                     # 7541 "C:\Program Files (x86)\Microchip\xc8\v2.00\pic\include\pic18f2550.h"
   710                           TABLAT equ 0FF5h ;# 
   711  0000                     # 7550 "C:\Program Files (x86)\Microchip\xc8\v2.00\pic\include\pic18f2550.h"
   712                           TBLPTR equ 0FF6h ;# 
   713  0000                     # 7557 "C:\Program Files (x86)\Microchip\xc8\v2.00\pic\include\pic18f2550.h"
   714                           TBLPTRL equ 0FF6h ;# 
   715  0000                     # 7564 "C:\Program Files (x86)\Microchip\xc8\v2.00\pic\include\pic18f2550.h"
   716                           TBLPTRH equ 0FF7h ;# 
   717  0000                     # 7571 "C:\Program Files (x86)\Microchip\xc8\v2.00\pic\include\pic18f2550.h"
   718                           TBLPTRU equ 0FF8h ;# 
   719  0000                     # 7580 "C:\Program Files (x86)\Microchip\xc8\v2.00\pic\include\pic18f2550.h"
   720                           PCLAT equ 0FF9h ;# 
   721  0000                     # 7587 "C:\Program Files (x86)\Microchip\xc8\v2.00\pic\include\pic18f2550.h"
   722                           PC equ 0FF9h ;# 
   723  0000                     # 7594 "C:\Program Files (x86)\Microchip\xc8\v2.00\pic\include\pic18f2550.h"
   724                           PCL equ 0FF9h ;# 
   725  0000                     # 7601 "C:\Program Files (x86)\Microchip\xc8\v2.00\pic\include\pic18f2550.h"
   726                           PCLATH equ 0FFAh ;# 
   727  0000                     # 7608 "C:\Program Files (x86)\Microchip\xc8\v2.00\pic\include\pic18f2550.h"
   728                           PCLATU equ 0FFBh ;# 
   729  0000                     # 7615 "C:\Program Files (x86)\Microchip\xc8\v2.00\pic\include\pic18f2550.h"
   730                           STKPTR equ 0FFCh ;# 
   731  0000                     # 7691 "C:\Program Files (x86)\Microchip\xc8\v2.00\pic\include\pic18f2550.h"
   732                           TOS equ 0FFDh ;# 
   733  0000                     # 7698 "C:\Program Files (x86)\Microchip\xc8\v2.00\pic\include\pic18f2550.h"
   734                           TOSL equ 0FFDh ;# 
   735  0000                     # 7705 "C:\Program Files (x86)\Microchip\xc8\v2.00\pic\include\pic18f2550.h"
   736                           TOSH equ 0FFEh ;# 
   737  0000                     # 7712 "C:\Program Files (x86)\Microchip\xc8\v2.00\pic\include\pic18f2550.h"
   738                           TOSU equ 0FFFh ;# 
   739  0000                     # 54 "C:\Program Files (x86)\Microchip\xc8\v2.00\pic\include\pic18f2550.h"
   740                           UFRM equ 0F66h ;# 
   741  0000                     # 61 "C:\Program Files (x86)\Microchip\xc8\v2.00\pic\include\pic18f2550.h"
   742                           UFRML equ 0F66h ;# 
   743  0000                     # 139 "C:\Program Files (x86)\Microchip\xc8\v2.00\pic\include\pic18f2550.h"
   744                           UFRMH equ 0F67h ;# 
   745  0000                     # 179 "C:\Program Files (x86)\Microchip\xc8\v2.00\pic\include\pic18f2550.h"
   746                           UIR equ 0F68h ;# 
   747  0000                     # 235 "C:\Program Files (x86)\Microchip\xc8\v2.00\pic\include\pic18f2550.h"
   748                           UIE equ 0F69h ;# 
   749  0000                     # 291 "C:\Program Files (x86)\Microchip\xc8\v2.00\pic\include\pic18f2550.h"
   750                           UEIR equ 0F6Ah ;# 
   751  0000                     # 342 "C:\Program Files (x86)\Microchip\xc8\v2.00\pic\include\pic18f2550.h"
   752                           UEIE equ 0F6Bh ;# 
   753  0000                     # 393 "C:\Program Files (x86)\Microchip\xc8\v2.00\pic\include\pic18f2550.h"
   754                           USTAT equ 0F6Ch ;# 
   755  0000                     # 453 "C:\Program Files (x86)\Microchip\xc8\v2.00\pic\include\pic18f2550.h"
   756                           UCON equ 0F6Dh ;# 
   757  0000                     # 504 "C:\Program Files (x86)\Microchip\xc8\v2.00\pic\include\pic18f2550.h"
   758                           UADDR equ 0F6Eh ;# 
   759  0000                     # 568 "C:\Program Files (x86)\Microchip\xc8\v2.00\pic\include\pic18f2550.h"
   760                           UCFG equ 0F6Fh ;# 
   761  0000                     # 647 "C:\Program Files (x86)\Microchip\xc8\v2.00\pic\include\pic18f2550.h"
   762                           UEP0 equ 0F70h ;# 
   763  0000                     # 755 "C:\Program Files (x86)\Microchip\xc8\v2.00\pic\include\pic18f2550.h"
   764                           UEP1 equ 0F71h ;# 
   765  0000                     # 863 "C:\Program Files (x86)\Microchip\xc8\v2.00\pic\include\pic18f2550.h"
   766                           UEP2 equ 0F72h ;# 
   767  0000                     # 971 "C:\Program Files (x86)\Microchip\xc8\v2.00\pic\include\pic18f2550.h"
   768                           UEP3 equ 0F73h ;# 
   769  0000                     # 1079 "C:\Program Files (x86)\Microchip\xc8\v2.00\pic\include\pic18f2550.h"
   770                           UEP4 equ 0F74h ;# 
   771  0000                     # 1187 "C:\Program Files (x86)\Microchip\xc8\v2.00\pic\include\pic18f2550.h"
   772                           UEP5 equ 0F75h ;# 
   773  0000                     # 1295 "C:\Program Files (x86)\Microchip\xc8\v2.00\pic\include\pic18f2550.h"
   774                           UEP6 equ 0F76h ;# 
   775  0000                     # 1403 "C:\Program Files (x86)\Microchip\xc8\v2.00\pic\include\pic18f2550.h"
   776                           UEP7 equ 0F77h ;# 
   777  0000                     # 1511 "C:\Program Files (x86)\Microchip\xc8\v2.00\pic\include\pic18f2550.h"
   778                           UEP8 equ 0F78h ;# 
   779  0000                     # 1587 "C:\Program Files (x86)\Microchip\xc8\v2.00\pic\include\pic18f2550.h"
   780                           UEP9 equ 0F79h ;# 
   781  0000                     # 1663 "C:\Program Files (x86)\Microchip\xc8\v2.00\pic\include\pic18f2550.h"
   782                           UEP10 equ 0F7Ah ;# 
   783  0000                     # 1739 "C:\Program Files (x86)\Microchip\xc8\v2.00\pic\include\pic18f2550.h"
   784                           UEP11 equ 0F7Bh ;# 
   785  0000                     # 1815 "C:\Program Files (x86)\Microchip\xc8\v2.00\pic\include\pic18f2550.h"
   786                           UEP12 equ 0F7Ch ;# 
   787  0000                     # 1891 "C:\Program Files (x86)\Microchip\xc8\v2.00\pic\include\pic18f2550.h"
   788                           UEP13 equ 0F7Dh ;# 
   789  0000                     # 1967 "C:\Program Files (x86)\Microchip\xc8\v2.00\pic\include\pic18f2550.h"
   790                           UEP14 equ 0F7Eh ;# 
   791  0000                     # 2043 "C:\Program Files (x86)\Microchip\xc8\v2.00\pic\include\pic18f2550.h"
   792                           UEP15 equ 0F7Fh ;# 
   793  0000                     # 2119 "C:\Program Files (x86)\Microchip\xc8\v2.00\pic\include\pic18f2550.h"
   794                           PORTA equ 0F80h ;# 
   795  0000                     # 2258 "C:\Program Files (x86)\Microchip\xc8\v2.00\pic\include\pic18f2550.h"
   796                           PORTB equ 0F81h ;# 
   797  0000                     # 2368 "C:\Program Files (x86)\Microchip\xc8\v2.00\pic\include\pic18f2550.h"
   798                           PORTC equ 0F82h ;# 
   799  0000                     # 2510 "C:\Program Files (x86)\Microchip\xc8\v2.00\pic\include\pic18f2550.h"
   800                           PORTE equ 0F84h ;# 
   801  0000                     # 2549 "C:\Program Files (x86)\Microchip\xc8\v2.00\pic\include\pic18f2550.h"
   802                           LATA equ 0F89h ;# 
   803  0000                     # 2649 "C:\Program Files (x86)\Microchip\xc8\v2.00\pic\include\pic18f2550.h"
   804                           LATB equ 0F8Ah ;# 
   805  0000                     # 2761 "C:\Program Files (x86)\Microchip\xc8\v2.00\pic\include\pic18f2550.h"
   806                           LATC equ 0F8Bh ;# 
   807  0000                     # 2839 "C:\Program Files (x86)\Microchip\xc8\v2.00\pic\include\pic18f2550.h"
   808                           TRISA equ 0F92h ;# 
   809  0000                     # 2844 "C:\Program Files (x86)\Microchip\xc8\v2.00\pic\include\pic18f2550.h"
   810                           DDRA equ 0F92h ;# 
   811  0000                     # 3037 "C:\Program Files (x86)\Microchip\xc8\v2.00\pic\include\pic18f2550.h"
   812                           TRISB equ 0F93h ;# 
   813  0000                     # 3042 "C:\Program Files (x86)\Microchip\xc8\v2.00\pic\include\pic18f2550.h"
   814                           DDRB equ 0F93h ;# 
   815  0000                     # 3259 "C:\Program Files (x86)\Microchip\xc8\v2.00\pic\include\pic18f2550.h"
   816                           TRISC equ 0F94h ;# 
   817  0000                     # 3264 "C:\Program Files (x86)\Microchip\xc8\v2.00\pic\include\pic18f2550.h"
   818                           DDRC equ 0F94h ;# 
   819  0000                     # 3413 "C:\Program Files (x86)\Microchip\xc8\v2.00\pic\include\pic18f2550.h"
   820                           OSCTUNE equ 0F9Bh ;# 
   821  0000                     # 3472 "C:\Program Files (x86)\Microchip\xc8\v2.00\pic\include\pic18f2550.h"
   822                           PIE1 equ 0F9Dh ;# 
   823  0000                     # 3543 "C:\Program Files (x86)\Microchip\xc8\v2.00\pic\include\pic18f2550.h"
   824                           PIR1 equ 0F9Eh ;# 
   825  0000                     # 3614 "C:\Program Files (x86)\Microchip\xc8\v2.00\pic\include\pic18f2550.h"
   826                           IPR1 equ 0F9Fh ;# 
   827  0000                     # 3685 "C:\Program Files (x86)\Microchip\xc8\v2.00\pic\include\pic18f2550.h"
   828                           PIE2 equ 0FA0h ;# 
   829  0000                     # 3756 "C:\Program Files (x86)\Microchip\xc8\v2.00\pic\include\pic18f2550.h"
   830                           PIR2 equ 0FA1h ;# 
   831  0000                     # 3827 "C:\Program Files (x86)\Microchip\xc8\v2.00\pic\include\pic18f2550.h"
   832                           IPR2 equ 0FA2h ;# 
   833  0000                     # 3898 "C:\Program Files (x86)\Microchip\xc8\v2.00\pic\include\pic18f2550.h"
   834                           EECON1 equ 0FA6h ;# 
   835  0000                     # 3964 "C:\Program Files (x86)\Microchip\xc8\v2.00\pic\include\pic18f2550.h"
   836                           EECON2 equ 0FA7h ;# 
   837  0000                     # 3971 "C:\Program Files (x86)\Microchip\xc8\v2.00\pic\include\pic18f2550.h"
   838                           EEDATA equ 0FA8h ;# 
   839  0000                     # 3978 "C:\Program Files (x86)\Microchip\xc8\v2.00\pic\include\pic18f2550.h"
   840                           EEADR equ 0FA9h ;# 
   841  0000                     # 3985 "C:\Program Files (x86)\Microchip\xc8\v2.00\pic\include\pic18f2550.h"
   842                           RCSTA equ 0FABh ;# 
   843  0000                     # 3990 "C:\Program Files (x86)\Microchip\xc8\v2.00\pic\include\pic18f2550.h"
   844                           RCSTA1 equ 0FABh ;# 
   845  0000                     # 4195 "C:\Program Files (x86)\Microchip\xc8\v2.00\pic\include\pic18f2550.h"
   846                           TXSTA equ 0FACh ;# 
   847  0000                     # 4200 "C:\Program Files (x86)\Microchip\xc8\v2.00\pic\include\pic18f2550.h"
   848                           TXSTA1 equ 0FACh ;# 
   849  0000                     # 4451 "C:\Program Files (x86)\Microchip\xc8\v2.00\pic\include\pic18f2550.h"
   850                           TXREG equ 0FADh ;# 
   851  0000                     # 4456 "C:\Program Files (x86)\Microchip\xc8\v2.00\pic\include\pic18f2550.h"
   852                           TXREG1 equ 0FADh ;# 
   853  0000                     # 4463 "C:\Program Files (x86)\Microchip\xc8\v2.00\pic\include\pic18f2550.h"
   854                           RCREG equ 0FAEh ;# 
   855  0000                     # 4468 "C:\Program Files (x86)\Microchip\xc8\v2.00\pic\include\pic18f2550.h"
   856                           RCREG1 equ 0FAEh ;# 
   857  0000                     # 4475 "C:\Program Files (x86)\Microchip\xc8\v2.00\pic\include\pic18f2550.h"
   858                           SPBRG equ 0FAFh ;# 
   859  0000                     # 4480 "C:\Program Files (x86)\Microchip\xc8\v2.00\pic\include\pic18f2550.h"
   860                           SPBRG1 equ 0FAFh ;# 
   861  0000                     # 4487 "C:\Program Files (x86)\Microchip\xc8\v2.00\pic\include\pic18f2550.h"
   862                           SPBRGH equ 0FB0h ;# 
   863  0000                     # 4494 "C:\Program Files (x86)\Microchip\xc8\v2.00\pic\include\pic18f2550.h"
   864                           T3CON equ 0FB1h ;# 
   865  0000                     # 4615 "C:\Program Files (x86)\Microchip\xc8\v2.00\pic\include\pic18f2550.h"
   866                           TMR3 equ 0FB2h ;# 
   867  0000                     # 4622 "C:\Program Files (x86)\Microchip\xc8\v2.00\pic\include\pic18f2550.h"
   868                           TMR3L equ 0FB2h ;# 
   869  0000                     # 4629 "C:\Program Files (x86)\Microchip\xc8\v2.00\pic\include\pic18f2550.h"
   870                           TMR3H equ 0FB3h ;# 
   871  0000                     # 4636 "C:\Program Files (x86)\Microchip\xc8\v2.00\pic\include\pic18f2550.h"
   872                           CMCON equ 0FB4h ;# 
   873  0000                     # 4726 "C:\Program Files (x86)\Microchip\xc8\v2.00\pic\include\pic18f2550.h"
   874                           CVRCON equ 0FB5h ;# 
   875  0000                     # 4811 "C:\Program Files (x86)\Microchip\xc8\v2.00\pic\include\pic18f2550.h"
   876                           ECCP1AS equ 0FB6h ;# 
   877  0000                     # 4816 "C:\Program Files (x86)\Microchip\xc8\v2.00\pic\include\pic18f2550.h"
   878                           CCP1AS equ 0FB6h ;# 
   879  0000                     # 4941 "C:\Program Files (x86)\Microchip\xc8\v2.00\pic\include\pic18f2550.h"
   880                           ECCP1DEL equ 0FB7h ;# 
   881  0000                     # 4946 "C:\Program Files (x86)\Microchip\xc8\v2.00\pic\include\pic18f2550.h"
   882                           CCP1DEL equ 0FB7h ;# 
   883  0000                     # 4981 "C:\Program Files (x86)\Microchip\xc8\v2.00\pic\include\pic18f2550.h"
   884                           BAUDCON equ 0FB8h ;# 
   885  0000                     # 4986 "C:\Program Files (x86)\Microchip\xc8\v2.00\pic\include\pic18f2550.h"
   886                           BAUDCTL equ 0FB8h ;# 
   887  0000                     # 5161 "C:\Program Files (x86)\Microchip\xc8\v2.00\pic\include\pic18f2550.h"
   888                           CCP2CON equ 0FBAh ;# 
   889  0000                     # 5225 "C:\Program Files (x86)\Microchip\xc8\v2.00\pic\include\pic18f2550.h"
   890                           CCPR2 equ 0FBBh ;# 
   891  0000                     # 5232 "C:\Program Files (x86)\Microchip\xc8\v2.00\pic\include\pic18f2550.h"
   892                           CCPR2L equ 0FBBh ;# 
   893  0000                     # 5239 "C:\Program Files (x86)\Microchip\xc8\v2.00\pic\include\pic18f2550.h"
   894                           CCPR2H equ 0FBCh ;# 
   895  0000                     # 5246 "C:\Program Files (x86)\Microchip\xc8\v2.00\pic\include\pic18f2550.h"
   896                           CCP1CON equ 0FBDh ;# 
   897  0000                     # 5310 "C:\Program Files (x86)\Microchip\xc8\v2.00\pic\include\pic18f2550.h"
   898                           CCPR1 equ 0FBEh ;# 
   899  0000                     # 5317 "C:\Program Files (x86)\Microchip\xc8\v2.00\pic\include\pic18f2550.h"
   900                           CCPR1L equ 0FBEh ;# 
   901  0000                     # 5324 "C:\Program Files (x86)\Microchip\xc8\v2.00\pic\include\pic18f2550.h"
   902                           CCPR1H equ 0FBFh ;# 
   903  0000                     # 5331 "C:\Program Files (x86)\Microchip\xc8\v2.00\pic\include\pic18f2550.h"
   904                           ADCON2 equ 0FC0h ;# 
   905  0000                     # 5402 "C:\Program Files (x86)\Microchip\xc8\v2.00\pic\include\pic18f2550.h"
   906                           ADCON1 equ 0FC1h ;# 
   907  0000                     # 5487 "C:\Program Files (x86)\Microchip\xc8\v2.00\pic\include\pic18f2550.h"
   908                           ADCON0 equ 0FC2h ;# 
   909  0000                     # 5606 "C:\Program Files (x86)\Microchip\xc8\v2.00\pic\include\pic18f2550.h"
   910                           ADRES equ 0FC3h ;# 
   911  0000                     # 5613 "C:\Program Files (x86)\Microchip\xc8\v2.00\pic\include\pic18f2550.h"
   912                           ADRESL equ 0FC3h ;# 
   913  0000                     # 5620 "C:\Program Files (x86)\Microchip\xc8\v2.00\pic\include\pic18f2550.h"
   914                           ADRESH equ 0FC4h ;# 
   915  0000                     # 5627 "C:\Program Files (x86)\Microchip\xc8\v2.00\pic\include\pic18f2550.h"
   916                           SSPCON2 equ 0FC5h ;# 
   917  0000                     # 5689 "C:\Program Files (x86)\Microchip\xc8\v2.00\pic\include\pic18f2550.h"
   918                           SSPCON1 equ 0FC6h ;# 
   919  0000                     # 5759 "C:\Program Files (x86)\Microchip\xc8\v2.00\pic\include\pic18f2550.h"
   920                           SSPSTAT equ 0FC7h ;# 
   921  0000                     # 6007 "C:\Program Files (x86)\Microchip\xc8\v2.00\pic\include\pic18f2550.h"
   922                           SSPADD equ 0FC8h ;# 
   923  0000                     # 6014 "C:\Program Files (x86)\Microchip\xc8\v2.00\pic\include\pic18f2550.h"
   924                           SSPBUF equ 0FC9h ;# 
   925  0000                     # 6021 "C:\Program Files (x86)\Microchip\xc8\v2.00\pic\include\pic18f2550.h"
   926                           T2CON equ 0FCAh ;# 
   927  0000                     # 6119 "C:\Program Files (x86)\Microchip\xc8\v2.00\pic\include\pic18f2550.h"
   928                           PR2 equ 0FCBh ;# 
   929  0000                     # 6124 "C:\Program Files (x86)\Microchip\xc8\v2.00\pic\include\pic18f2550.h"
   930                           MEMCON equ 0FCBh ;# 
   931  0000                     # 6229 "C:\Program Files (x86)\Microchip\xc8\v2.00\pic\include\pic18f2550.h"
   932                           TMR2 equ 0FCCh ;# 
   933  0000                     # 6236 "C:\Program Files (x86)\Microchip\xc8\v2.00\pic\include\pic18f2550.h"
   934                           T1CON equ 0FCDh ;# 
   935  0000                     # 6339 "C:\Program Files (x86)\Microchip\xc8\v2.00\pic\include\pic18f2550.h"
   936                           TMR1 equ 0FCEh ;# 
   937  0000                     # 6346 "C:\Program Files (x86)\Microchip\xc8\v2.00\pic\include\pic18f2550.h"
   938                           TMR1L equ 0FCEh ;# 
   939  0000                     # 6353 "C:\Program Files (x86)\Microchip\xc8\v2.00\pic\include\pic18f2550.h"
   940                           TMR1H equ 0FCFh ;# 
   941  0000                     # 6360 "C:\Program Files (x86)\Microchip\xc8\v2.00\pic\include\pic18f2550.h"
   942                           RCON equ 0FD0h ;# 
   943  0000                     # 6509 "C:\Program Files (x86)\Microchip\xc8\v2.00\pic\include\pic18f2550.h"
   944                           WDTCON equ 0FD1h ;# 
   945  0000                     # 6537 "C:\Program Files (x86)\Microchip\xc8\v2.00\pic\include\pic18f2550.h"
   946                           HLVDCON equ 0FD2h ;# 
   947  0000                     # 6542 "C:\Program Files (x86)\Microchip\xc8\v2.00\pic\include\pic18f2550.h"
   948                           LVDCON equ 0FD2h ;# 
   949  0000                     # 6807 "C:\Program Files (x86)\Microchip\xc8\v2.00\pic\include\pic18f2550.h"
   950                           OSCCON equ 0FD3h ;# 
   951  0000                     # 6890 "C:\Program Files (x86)\Microchip\xc8\v2.00\pic\include\pic18f2550.h"
   952                           T0CON equ 0FD5h ;# 
   953  0000                     # 6960 "C:\Program Files (x86)\Microchip\xc8\v2.00\pic\include\pic18f2550.h"
   954                           TMR0 equ 0FD6h ;# 
   955  0000                     # 6967 "C:\Program Files (x86)\Microchip\xc8\v2.00\pic\include\pic18f2550.h"
   956                           TMR0L equ 0FD6h ;# 
   957  0000                     # 6974 "C:\Program Files (x86)\Microchip\xc8\v2.00\pic\include\pic18f2550.h"
   958                           TMR0H equ 0FD7h ;# 
   959  0000                     # 6981 "C:\Program Files (x86)\Microchip\xc8\v2.00\pic\include\pic18f2550.h"
   960                           STATUS equ 0FD8h ;# 
   961  0000                     # 7052 "C:\Program Files (x86)\Microchip\xc8\v2.00\pic\include\pic18f2550.h"
   962                           FSR2 equ 0FD9h ;# 
   963  0000                     # 7059 "C:\Program Files (x86)\Microchip\xc8\v2.00\pic\include\pic18f2550.h"
   964                           FSR2L equ 0FD9h ;# 
   965  0000                     # 7066 "C:\Program Files (x86)\Microchip\xc8\v2.00\pic\include\pic18f2550.h"
   966                           FSR2H equ 0FDAh ;# 
   967  0000                     # 7073 "C:\Program Files (x86)\Microchip\xc8\v2.00\pic\include\pic18f2550.h"
   968                           PLUSW2 equ 0FDBh ;# 
   969  0000                     # 7080 "C:\Program Files (x86)\Microchip\xc8\v2.00\pic\include\pic18f2550.h"
   970                           PREINC2 equ 0FDCh ;# 
   971  0000                     # 7087 "C:\Program Files (x86)\Microchip\xc8\v2.00\pic\include\pic18f2550.h"
   972                           POSTDEC2 equ 0FDDh ;# 
   973  0000                     # 7094 "C:\Program Files (x86)\Microchip\xc8\v2.00\pic\include\pic18f2550.h"
   974                           POSTINC2 equ 0FDEh ;# 
   975  0000                     # 7101 "C:\Program Files (x86)\Microchip\xc8\v2.00\pic\include\pic18f2550.h"
   976                           INDF2 equ 0FDFh ;# 
   977  0000                     # 7108 "C:\Program Files (x86)\Microchip\xc8\v2.00\pic\include\pic18f2550.h"
   978                           BSR equ 0FE0h ;# 
   979  0000                     # 7115 "C:\Program Files (x86)\Microchip\xc8\v2.00\pic\include\pic18f2550.h"
   980                           FSR1 equ 0FE1h ;# 
   981  0000                     # 7122 "C:\Program Files (x86)\Microchip\xc8\v2.00\pic\include\pic18f2550.h"
   982                           FSR1L equ 0FE1h ;# 
   983  0000                     # 7129 "C:\Program Files (x86)\Microchip\xc8\v2.00\pic\include\pic18f2550.h"
   984                           FSR1H equ 0FE2h ;# 
   985  0000                     # 7136 "C:\Program Files (x86)\Microchip\xc8\v2.00\pic\include\pic18f2550.h"
   986                           PLUSW1 equ 0FE3h ;# 
   987  0000                     # 7143 "C:\Program Files (x86)\Microchip\xc8\v2.00\pic\include\pic18f2550.h"
   988                           PREINC1 equ 0FE4h ;# 
   989  0000                     # 7150 "C:\Program Files (x86)\Microchip\xc8\v2.00\pic\include\pic18f2550.h"
   990                           POSTDEC1 equ 0FE5h ;# 
   991  0000                     # 7157 "C:\Program Files (x86)\Microchip\xc8\v2.00\pic\include\pic18f2550.h"
   992                           POSTINC1 equ 0FE6h ;# 
   993  0000                     # 7164 "C:\Program Files (x86)\Microchip\xc8\v2.00\pic\include\pic18f2550.h"
   994                           INDF1 equ 0FE7h ;# 
   995  0000                     # 7171 "C:\Program Files (x86)\Microchip\xc8\v2.00\pic\include\pic18f2550.h"
   996                           WREG equ 0FE8h ;# 
   997  0000                     # 7178 "C:\Program Files (x86)\Microchip\xc8\v2.00\pic\include\pic18f2550.h"
   998                           FSR0 equ 0FE9h ;# 
   999  0000                     # 7185 "C:\Program Files (x86)\Microchip\xc8\v2.00\pic\include\pic18f2550.h"
  1000                           FSR0L equ 0FE9h ;# 
  1001  0000                     # 7192 "C:\Program Files (x86)\Microchip\xc8\v2.00\pic\include\pic18f2550.h"
  1002                           FSR0H equ 0FEAh ;# 
  1003  0000                     # 7199 "C:\Program Files (x86)\Microchip\xc8\v2.00\pic\include\pic18f2550.h"
  1004                           PLUSW0 equ 0FEBh ;# 
  1005  0000                     # 7206 "C:\Program Files (x86)\Microchip\xc8\v2.00\pic\include\pic18f2550.h"
  1006                           PREINC0 equ 0FECh ;# 
  1007  0000                     # 7213 "C:\Program Files (x86)\Microchip\xc8\v2.00\pic\include\pic18f2550.h"
  1008                           POSTDEC0 equ 0FEDh ;# 
  1009  0000                     # 7220 "C:\Program Files (x86)\Microchip\xc8\v2.00\pic\include\pic18f2550.h"
  1010                           POSTINC0 equ 0FEEh ;# 
  1011  0000                     # 7227 "C:\Program Files (x86)\Microchip\xc8\v2.00\pic\include\pic18f2550.h"
  1012                           INDF0 equ 0FEFh ;# 
  1013  0000                     # 7234 "C:\Program Files (x86)\Microchip\xc8\v2.00\pic\include\pic18f2550.h"
  1014                           INTCON3 equ 0FF0h ;# 
  1015  0000                     # 7326 "C:\Program Files (x86)\Microchip\xc8\v2.00\pic\include\pic18f2550.h"
  1016                           INTCON2 equ 0FF1h ;# 
  1017  0000                     # 7403 "C:\Program Files (x86)\Microchip\xc8\v2.00\pic\include\pic18f2550.h"
  1018                           INTCON equ 0FF2h ;# 
  1019  0000                     # 7520 "C:\Program Files (x86)\Microchip\xc8\v2.00\pic\include\pic18f2550.h"
  1020                           PROD equ 0FF3h ;# 
  1021  0000                     # 7527 "C:\Program Files (x86)\Microchip\xc8\v2.00\pic\include\pic18f2550.h"
  1022                           PRODL equ 0FF3h ;# 
  1023  0000                     # 7534 "C:\Program Files (x86)\Microchip\xc8\v2.00\pic\include\pic18f2550.h"
  1024                           PRODH equ 0FF4h ;# 
  1025  0000                     # 7541 "C:\Program Files (x86)\Microchip\xc8\v2.00\pic\include\pic18f2550.h"
  1026                           TABLAT equ 0FF5h ;# 
  1027  0000                     # 7550 "C:\Program Files (x86)\Microchip\xc8\v2.00\pic\include\pic18f2550.h"
  1028                           TBLPTR equ 0FF6h ;# 
  1029  0000                     # 7557 "C:\Program Files (x86)\Microchip\xc8\v2.00\pic\include\pic18f2550.h"
  1030                           TBLPTRL equ 0FF6h ;# 
  1031  0000                     # 7564 "C:\Program Files (x86)\Microchip\xc8\v2.00\pic\include\pic18f2550.h"
  1032                           TBLPTRH equ 0FF7h ;# 
  1033  0000                     # 7571 "C:\Program Files (x86)\Microchip\xc8\v2.00\pic\include\pic18f2550.h"
  1034                           TBLPTRU equ 0FF8h ;# 
  1035  0000                     # 7580 "C:\Program Files (x86)\Microchip\xc8\v2.00\pic\include\pic18f2550.h"
  1036                           PCLAT equ 0FF9h ;# 
  1037  0000                     # 7587 "C:\Program Files (x86)\Microchip\xc8\v2.00\pic\include\pic18f2550.h"
  1038                           PC equ 0FF9h ;# 
  1039  0000                     # 7594 "C:\Program Files (x86)\Microchip\xc8\v2.00\pic\include\pic18f2550.h"
  1040                           PCL equ 0FF9h ;# 
  1041  0000                     # 7601 "C:\Program Files (x86)\Microchip\xc8\v2.00\pic\include\pic18f2550.h"
  1042                           PCLATH equ 0FFAh ;# 
  1043  0000                     # 7608 "C:\Program Files (x86)\Microchip\xc8\v2.00\pic\include\pic18f2550.h"
  1044                           PCLATU equ 0FFBh ;# 
  1045  0000                     # 7615 "C:\Program Files (x86)\Microchip\xc8\v2.00\pic\include\pic18f2550.h"
  1046                           STKPTR equ 0FFCh ;# 
  1047  0000                     # 7691 "C:\Program Files (x86)\Microchip\xc8\v2.00\pic\include\pic18f2550.h"
  1048                           TOS equ 0FFDh ;# 
  1049  0000                     # 7698 "C:\Program Files (x86)\Microchip\xc8\v2.00\pic\include\pic18f2550.h"
  1050                           TOSL equ 0FFDh ;# 
  1051  0000                     # 7705 "C:\Program Files (x86)\Microchip\xc8\v2.00\pic\include\pic18f2550.h"
  1052                           TOSH equ 0FFEh ;# 
  1053  0000                     # 7712 "C:\Program Files (x86)\Microchip\xc8\v2.00\pic\include\pic18f2550.h"
  1054                           TOSU equ 0FFFh ;# 
  1055  0000                     	FNCALL	_main,_i2C_Setup
  1056                           	FNCALL	_main,_interrupts_Setup
  1057                           	FNROOT	_main
  1058                           	FNCALL	intlevel2,_interrupts_Event
  1059                           	global	intlevel2
  1060                           	FNROOT	intlevel2
  1061                           	global	vl53l0x_i2C_SendData@F21
  1062                           	global	vl53l0x_I2C_ReceiveData@F28
  1063                           	global	vl53l0x_I2C_ReceiveData@F26
  1064                           	global	_SSPBUF
  1065                           _SSPBUF	set	0xFC9
  1066  0000                     	global	_SSPADD
  1067                           _SSPADD	set	0xFC8
  1068  0000                     	global	_SSPCON2bits
  1069                           _SSPCON2bits	set	0xFC5
  1070  0000                     	global	_SSPCON1bits
  1071                           _SSPCON1bits	set	0xFC6
  1072  0000                     	global	_SSPSTATbits
  1073                           _SSPSTATbits	set	0xFC7
  1074  0000                     	global	_PIR2bits
  1075                           _PIR2bits	set	0xFA1
  1076  0000                     	global	_PIR1bits
  1077                           _PIR1bits	set	0xF9E
  1078  0000                     	global	_IPR2bits
  1079                           _IPR2bits	set	0xFA2
  1080  0000                     	global	_IPR1bits
  1081                           _IPR1bits	set	0xF9F
  1082  0000                     	global	_PIE2bits
  1083                           _PIE2bits	set	0xFA0
  1084  0000                     	global	_PIE1bits
  1085                           _PIE1bits	set	0xF9D
  1086  0000                     	global	_INTCON3bits
  1087                           _INTCON3bits	set	0xFF0
  1088  0000                     	global	_INTCON2bits
  1089                           _INTCON2bits	set	0xFF1
  1090  0000                     	global	_INTCONbits
  1091                           _INTCONbits	set	0xFF2
  1092  0000                     	global	_TRISBbits
  1093                           _TRISBbits	set	0xF93
  1094  0000                     	global	_T0CONbits
  1095                           _T0CONbits	set	0xFD5
  1096  0000                     ; #config settings
  1097                           global __CFG_FOSC$INTOSC_EC
  1098                           __CFG_FOSC$INTOSC_EC equ 0x0
  1099  0000                     global __CFG_WDT$OFF
  1100                           __CFG_WDT$OFF equ 0x0
  1101  0000                     global __CFG_MCLRE$OFF
  1102                           __CFG_MCLRE$OFF equ 0x0
  1103  0000                     	file	"C:\Users\Jamie\AppData\Local\Temp\s8co."
  1104                           	line	#
  1105                           psect	cinit,class=CODE,delta=1,reloc=2
  1106                           global __pcinit
  1107                           __pcinit:
  1108  0003C0                     global start_initialization
  1109                           start_initialization:
  1110  0003C0                     
  1111                           global __initialization
  1112                           __initialization:
  1113  0003C0                     psect	bssCOMRAM,class=COMRAM,space=1,noexec
  1114                           global __pbssCOMRAM
  1115                           __pbssCOMRAM:
  1116  000001                     vl53l0x_i2C_SendData@F21:
  1117  000001                            ds      2
  1118  000001                     vl53l0x_I2C_ReceiveData@F28:
  1119  000003                            ds      1
  1120  000003                     vl53l0x_I2C_ReceiveData@F26:
  1121  000004                            ds      1
  1122  000004                     	file	"C:\Users\Jamie\AppData\Local\Temp\s8co."
  1123                           	line	#
  1124                           psect	cinit
  1125                           ; Clear objects allocated to COMRAM (4 bytes)
  1126                           	global __pbssCOMRAM
  1127                           clrf	(__pbssCOMRAM+3)&0xffh,c
  1128  0003C0  6A04               clrf	(__pbssCOMRAM+2)&0xffh,c
  1129  0003C2  6A03               clrf	(__pbssCOMRAM+1)&0xffh,c
  1130  0003C4  6A02               clrf	(__pbssCOMRAM+0)&0xffh,c
  1131  0003C6  6A01               psect cinit,class=CODE,delta=1
  1132                           global end_of_initialization,__end_of__initialization
  1133                           
  1134                           ;End of C runtime variable initialization code
  1135                           
  1136                           end_of_initialization:
  1137  0003C8                     __end_of__initialization:
  1138  0003C8                     	bcf int$flags,0,c ;clear compiler interrupt flag (level 1)
  1139  0003C8  9005               	bcf int$flags,1,c ;clear compiler interrupt flag (level 2)
  1140  0003CA  9205               movlb 0
  1141  0003CC  0100               goto _main	;jump to C main() function
  1142  0003CE  EFCA  F001         psect	cstackCOMRAM,class=COMRAM,space=1,noexec
  1143                           global __pcstackCOMRAM
  1144                           __pcstackCOMRAM:
  1145  000000                     ?_interrupts_Setup:	; 1 bytes @ 0x0
  1146  000000                     ??_interrupts_Setup:	; 1 bytes @ 0x0
  1147  000000                     ?_i2C_Setup:	; 1 bytes @ 0x0
  1148  000000                     ??_i2C_Setup:	; 1 bytes @ 0x0
  1149  000000                     ?_main:	; 1 bytes @ 0x0
  1150  000000                     ??_main:	; 1 bytes @ 0x0
  1151  000000                     ?_interrupts_Event:	; 1 bytes @ 0x0
  1152  000000                     ??_interrupts_Event:	; 1 bytes @ 0x0
  1153  000000                     ;!
  1154                           ;!Data Sizes:
  1155                           ;!    Strings     0
  1156                           ;!    Constant    0
  1157                           ;!    Data        0
  1158                           ;!    BSS         4
  1159                           ;!    Persistent  0
  1160                           ;!    Stack       0
  1161                           ;!
  1162                           ;!Auto Spaces:
  1163                           ;!    Space          Size  Autos    Used
  1164                           ;!    COMRAM           94      0       4
  1165                           ;!    BANK0           160      0       0
  1166                           ;!    BANK1           256      0       0
  1167                           ;!    BANK2           256      0       0
  1168                           ;!    BANK3           256      0       0
  1169                           ;!    BANK4           256      0       0
  1170                           ;!    BANK5           256      0       0
  1171                           ;!    BANK6           256      0       0
  1172                           ;!    BANK7           256      0       0
  1173                           
  1174                           ;!
  1175                           ;!Pointer List with Targets:
  1176                           ;!
  1177                           ;!    None.
  1178                           
  1179                           
  1180                           ;!
  1181                           ;!Critical Paths under _main in COMRAM
  1182                           ;!
  1183                           ;!    None.
  1184                           ;!
  1185                           ;!Critical Paths under _interrupts_Event in COMRAM
  1186                           ;!
  1187                           ;!    None.
  1188                           ;!
  1189                           ;!Critical Paths under _main in BANK0
  1190                           ;!
  1191                           ;!    None.
  1192                           ;!
  1193                           ;!Critical Paths under _interrupts_Event in BANK0
  1194                           ;!
  1195                           ;!    None.
  1196                           ;!
  1197                           ;!Critical Paths under _main in BANK1
  1198                           ;!
  1199                           ;!    None.
  1200                           ;!
  1201                           ;!Critical Paths under _interrupts_Event in BANK1
  1202                           ;!
  1203                           ;!    None.
  1204                           ;!
  1205                           ;!Critical Paths under _main in BANK2
  1206                           ;!
  1207                           ;!    None.
  1208                           ;!
  1209                           ;!Critical Paths under _interrupts_Event in BANK2
  1210                           ;!
  1211                           ;!    None.
  1212                           ;!
  1213                           ;!Critical Paths under _main in BANK3
  1214                           ;!
  1215                           ;!    None.
  1216                           ;!
  1217                           ;!Critical Paths under _interrupts_Event in BANK3
  1218                           ;!
  1219                           ;!    None.
  1220                           ;!
  1221                           ;!Critical Paths under _main in BANK4
  1222                           ;!
  1223                           ;!    None.
  1224                           ;!
  1225                           ;!Critical Paths under _interrupts_Event in BANK4
  1226                           ;!
  1227                           ;!    None.
  1228                           ;!
  1229                           ;!Critical Paths under _main in BANK5
  1230                           ;!
  1231                           ;!    None.
  1232                           ;!
  1233                           ;!Critical Paths under _interrupts_Event in BANK5
  1234                           ;!
  1235                           ;!    None.
  1236                           ;!
  1237                           ;!Critical Paths under _main in BANK6
  1238                           ;!
  1239                           ;!    None.
  1240                           ;!
  1241                           ;!Critical Paths under _interrupts_Event in BANK6
  1242                           ;!
  1243                           ;!    None.
  1244                           ;!
  1245                           ;!Critical Paths under _main in BANK7
  1246                           ;!
  1247                           ;!    None.
  1248                           ;!
  1249                           ;!Critical Paths under _interrupts_Event in BANK7
  1250                           ;!
  1251                           ;!    None.
  1252                           
  1253 ;;
  1254 ;;Main: autosize = 0, tempsize = 0, incstack = 0, save=0
  1255 ;;
  1256                           
  1257                           ;!
  1258                           ;!Call Graph Tables:
  1259                           ;!
  1260                           ;! ---------------------------------------------------------------------------------
  1261                           ;! (Depth) Function   	        Calls       Base Space   Used Autos Params    Refs
  1262                           ;! ---------------------------------------------------------------------------------
  1263                           ;! (0) _main                                                 0     0      0       0
  1264                           ;!                          _i2C_Setup
  1265                           ;!                   _interrupts_Setup
  1266                           ;! ---------------------------------------------------------------------------------
  1267                           ;! (1) _interrupts_Setup                                     0     0      0       0
  1268                           ;! ---------------------------------------------------------------------------------
  1269                           ;! (1) _i2C_Setup                                            0     0      0       0
  1270                           ;! ---------------------------------------------------------------------------------
  1271                           ;! Estimated maximum stack depth 1
  1272                           ;! ---------------------------------------------------------------------------------
  1273                           ;! (Depth) Function   	        Calls       Base Space   Used Autos Params    Refs
  1274                           ;! ---------------------------------------------------------------------------------
  1275                           ;! (2) _interrupts_Event                                     0     0      0       0
  1276                           ;! ---------------------------------------------------------------------------------
  1277                           ;! Estimated maximum stack depth 2
  1278                           ;! ---------------------------------------------------------------------------------
  1279                           ;!
  1280                           ;! Call Graph Graphs:
  1281                           ;!
  1282                           ;! _main (ROOT)
  1283                           ;!   _i2C_Setup
  1284                           ;!   _interrupts_Setup
  1285                           ;!
  1286                           ;! _interrupts_Event (ROOT)
  1287                           ;!
  1288                           
  1289                           ;! Address spaces:
  1290                           
  1291                           ;!Name               Size   Autos  Total    Cost      Usage
  1292                           ;!BIGRAM             7FF      0       0      21        0.0%
  1293                           ;!EEDATA             100      0       0       0        0.0%
  1294                           ;!BITBANK7           100      0       0      18        0.0%
  1295                           ;!BANK7              100      0       0      19        0.0%
  1296                           ;!BITBANK6           100      0       0      16        0.0%
  1297                           ;!BANK6              100      0       0      17        0.0%
  1298                           ;!BITBANK5           100      0       0      14        0.0%
  1299                           ;!BANK5              100      0       0      15        0.0%
  1300                           ;!BITBANK4           100      0       0      12        0.0%
  1301                           ;!BANK4              100      0       0      13        0.0%
  1302                           ;!BITBANK3           100      0       0      10        0.0%
  1303                           ;!BANK3              100      0       0      11        0.0%
  1304                           ;!BITBANK2           100      0       0       8        0.0%
  1305                           ;!BANK2              100      0       0       9        0.0%
  1306                           ;!BITBANK1           100      0       0       6        0.0%
  1307                           ;!BANK1              100      0       0       7        0.0%
  1308                           ;!BITBANK0            A0      0       0       4        0.0%
  1309                           ;!BANK0               A0      0       0       5        0.0%
  1310                           ;!BITCOMRAM           5E      0       0       0        0.0%
  1311                           ;!COMRAM              5E      0       4       1        4.3%
  1312                           ;!BITSFR               0      0       0     200        0.0%
  1313                           ;!SFR                  0      0       0     200        0.0%
  1314                           ;!STACK                0      0       0       2        0.0%
  1315                           ;!NULL                 0      0       0       0        0.0%
  1316                           ;!ABS                  0      0       4      20        0.0%
  1317                           ;!DATA                 0      0       4       3        0.0%
  1318                           ;!CODE                 0      0       0       0        0.0%
  1319                           
  1320                           	global	_main
  1321                           
  1322 ;; *************** function _main *****************
  1323 ;; Defined at:
  1324 ;;		line 58 in file "main.c"
  1325 ;; Parameters:    Size  Location     Type
  1326 ;;		None
  1327 ;; Auto vars:     Size  Location     Type
  1328 ;;		None
  1329 ;; Return value:  Size  Location     Type
  1330 ;;                  1    wreg      void 
  1331 ;; Registers used:
  1332 ;;		wreg, status,2, cstack
  1333 ;; Tracked objects:
  1334 ;;		On entry : 0/0
  1335 ;;		On exit  : 0/0
  1336 ;;		Unchanged: 0/0
  1337 ;; Data sizes:     COMRAM   BANK0   BANK1   BANK2   BANK3   BANK4   BANK5   BANK6   BANK7
  1338 ;;      Params:         0       0       0       0       0       0       0       0       0
  1339 ;;      Locals:         0       0       0       0       0       0       0       0       0
  1340 ;;      Temps:          0       0       0       0       0       0       0       0       0
  1341 ;;      Totals:         0       0       0       0       0       0       0       0       0
  1342 ;;Total ram usage:        0 bytes
  1343 ;; Hardware stack levels required when called:    2
  1344 ;; This function calls:
  1345 ;;		_i2C_Setup
  1346 ;;		_interrupts_Setup
  1347 ;; This function is called by:
  1348 ;;		Startup code after reset
  1349 ;; This function uses a non-reentrant model
  1350 ;;
  1351                           psect	text0,class=CODE,space=0,reloc=2,group=0
  1352                           	file	"main.c"
  1353                           	line	58
  1354                           global __ptext0
  1355                           __ptext0:
  1356  000394                     psect	text0
  1357                           	file	"main.c"
  1358                           	line	58
  1359                           	global	__size_of_main
  1360                           	__size_of_main	equ	__end_of_main-_main
  1361  0000                     	
  1362                           _main:
  1363  000394                     ;incstack = 0
  1364                           	opt	stack 29
  1365                           	line	59
  1366                           	
  1367                           l939:
  1368  000394                     ;main.c: 59:     interrupts_Setup();
  1369                           	call	_interrupts_Setup	;wreg free
  1370  000394  EC86  F001         	line	60
  1371                           	
  1372                           l941:
  1373  000398                     ;main.c: 60:     i2C_Setup();
  1374                           	call	_i2C_Setup	;wreg free
  1375  000398  ECB3  F001         	line	64
  1376                           	
  1377                           l943:
  1378  00039C                     ;main.c: 64:     T0CONbits.TMR0ON = 1;
  1379                           	bsf	((c:4053)),c,7	;volatile
  1380  00039C  8ED5               	line	65
  1381                           	
  1382                           l945:
  1383  00039E                     ;main.c: 65:     T0CONbits.T08BIT = 0;
  1384                           	bcf	((c:4053)),c,6	;volatile
  1385  00039E  9CD5               	line	66
  1386                           	
  1387                           l947:
  1388  0003A0                     ;main.c: 66:     T0CONbits.T0CS = 0;
  1389                           	bcf	((c:4053)),c,5	;volatile
  1390  0003A0  9AD5               	line	67
  1391                           	
  1392                           l949:
  1393  0003A2                     ;main.c: 67:     T0CONbits.T0SE = 1;
  1394                           	bsf	((c:4053)),c,4	;volatile
  1395  0003A2  88D5               	line	68
  1396                           	
  1397                           l951:
  1398  0003A4                     ;main.c: 68:     T0CONbits.PSA = 0;
  1399                           	bcf	((c:4053)),c,3	;volatile
  1400  0003A4  96D5               	line	69
  1401                           	
  1402                           l953:
  1403  0003A6                     ;main.c: 69:     T0CONbits.T0PS2 = 1;
  1404                           	bsf	((c:4053)),c,2	;volatile
  1405  0003A6  84D5               	line	70
  1406                           	
  1407                           l955:
  1408  0003A8                     ;main.c: 70:     T0CONbits.T0PS1 = 1;
  1409                           	bsf	((c:4053)),c,1	;volatile
  1410  0003A8  82D5               	line	71
  1411                           	
  1412                           l957:
  1413  0003AA                     ;main.c: 71:     T0CONbits.T0PS0 = 1;
  1414                           	bsf	((c:4053)),c,0	;volatile
  1415  0003AA  80D5               	line	74
  1416                           	
  1417                           l959:
  1418  0003AC                     ;main.c: 74:     TRISBbits.TRISB2 = 0;
  1419                           	bcf	((c:3987)),c,2	;volatile
  1420  0003AC  9493               	line	75
  1421                           	
  1422                           l961:
  1423  0003AE                     ;main.c: 75:     TRISBbits.TRISB3 = 0;
  1424                           	bcf	((c:3987)),c,3	;volatile
  1425  0003AE  9693               	line	76
  1426                           	
  1427                           l963:
  1428  0003B0                     ;main.c: 76:     TRISBbits.TRISB4 = 0;
  1429                           	bcf	((c:3987)),c,4	;volatile
  1430  0003B0  9893               	line	77
  1431                           	
  1432                           l965:
  1433  0003B2                     ;main.c: 77:     TRISBbits.TRISB5 = 0;
  1434                           	bcf	((c:3987)),c,5	;volatile
  1435  0003B2  9A93               	line	78
  1436                           	
  1437                           l967:
  1438  0003B4                     ;main.c: 78:     TRISBbits.TRISB6 = 0;
  1439                           	bcf	((c:3987)),c,6	;volatile
  1440  0003B4  9C93               	line	79
  1441                           	
  1442                           l969:
  1443  0003B6                     ;main.c: 79:     TRISBbits.TRISB7 = 0;
  1444                           	bcf	((c:3987)),c,7	;volatile
  1445  0003B6  9E93               	line	81
  1446                           ;main.c: 81:     while(1);
  1447                           	
  1448                           l13:
  1449  0003B8                     	
  1450                           l14:
  1451  0003B8                     	goto	l13
  1452  0003B8  EFDC  F001         	
  1453                           l15:
  1454  0003BC                     	line	84
  1455                           ;main.c: 83:     return;
  1456                           	
  1457                           l16:
  1458  0003BC                     	global	start
  1459                           	goto	start
  1460  0003BC  EF07  F000         	opt stack 0
  1461                           GLOBAL	__end_of_main
  1462                           	__end_of_main:
  1463  0003C0                     	signat	_main,89
  1464                           	global	_interrupts_Setup
  1465                           
  1466 ;; *************** function _interrupts_Setup *****************
  1467 ;; Defined at:
  1468 ;;		line 18 in file "interrupts.c"
  1469 ;; Parameters:    Size  Location     Type
  1470 ;;		None
  1471 ;; Auto vars:     Size  Location     Type
  1472 ;;		None
  1473 ;; Return value:  Size  Location     Type
  1474 ;;                  1    wreg      void 
  1475 ;; Registers used:
  1476 ;;		None
  1477 ;; Tracked objects:
  1478 ;;		On entry : 0/0
  1479 ;;		On exit  : 0/0
  1480 ;;		Unchanged: 0/0
  1481 ;; Data sizes:     COMRAM   BANK0   BANK1   BANK2   BANK3   BANK4   BANK5   BANK6   BANK7
  1482 ;;      Params:         0       0       0       0       0       0       0       0       0
  1483 ;;      Locals:         0       0       0       0       0       0       0       0       0
  1484 ;;      Temps:          0       0       0       0       0       0       0       0       0
  1485 ;;      Totals:         0       0       0       0       0       0       0       0       0
  1486 ;;Total ram usage:        0 bytes
  1487 ;; Hardware stack levels used:    1
  1488 ;; Hardware stack levels required when called:    1
  1489 ;; This function calls:
  1490 ;;		Nothing
  1491 ;; This function is called by:
  1492 ;;		_main
  1493 ;; This function uses a non-reentrant model
  1494 ;;
  1495                           psect	text1,class=CODE,space=0,reloc=2,group=0
  1496                           	file	"interrupts.c"
  1497                           	line	18
  1498                           global __ptext1
  1499                           __ptext1:
  1500  00030C                     psect	text1
  1501                           	file	"interrupts.c"
  1502                           	line	18
  1503                           	global	__size_of_interrupts_Setup
  1504                           	__size_of_interrupts_Setup	equ	__end_of_interrupts_Setup-_interrupts_Setup
  1505  0000                     	
  1506                           _interrupts_Setup:
  1507  00030C                     ;incstack = 0
  1508                           	opt	stack 29
  1509                           	line	21
  1510                           	
  1511                           l875:
  1512  00030C                     ;interrupts.c: 21:     INTCONbits.GIE = 1;
  1513                           	bsf	((c:4082)),c,7	;volatile
  1514  00030C  8EF2               	line	22
  1515                           ;interrupts.c: 22:     INTCONbits.PEIE = 0;
  1516                           	bcf	((c:4082)),c,6	;volatile
  1517  00030E  9CF2               	line	23
  1518                           ;interrupts.c: 23:     INTCONbits.TMR0IE = 1;
  1519                           	bsf	((c:4082)),c,5	;volatile
  1520  000310  8AF2               	line	24
  1521                           ;interrupts.c: 24:     INTCONbits.INT0IE = 0;
  1522                           	bcf	((c:4082)),c,4	;volatile
  1523  000312  98F2               	line	25
  1524                           ;interrupts.c: 25:     INTCONbits.RBIE = 0;
  1525                           	bcf	((c:4082)),c,3	;volatile
  1526  000314  96F2               	line	28
  1527                           ;interrupts.c: 28:     INTCON2bits.RBPU = 1;
  1528                           	bsf	((c:4081)),c,7	;volatile
  1529  000316  8EF1               	line	29
  1530                           ;interrupts.c: 29:     INTCON2bits.INTEDG0 = 1;
  1531                           	bsf	((c:4081)),c,6	;volatile
  1532  000318  8CF1               	line	30
  1533                           ;interrupts.c: 30:     INTCON2bits.INTEDG1 = 1;
  1534                           	bsf	((c:4081)),c,5	;volatile
  1535  00031A  8AF1               	line	31
  1536                           ;interrupts.c: 31:     INTCON2bits.INTEDG2 = 1;
  1537                           	bsf	((c:4081)),c,4	;volatile
  1538  00031C  88F1               	line	32
  1539                           ;interrupts.c: 32:     INTCON2bits.TMR0IP = 1;
  1540                           	bsf	((c:4081)),c,2	;volatile
  1541  00031E  84F1               	line	33
  1542                           ;interrupts.c: 33:     INTCON2bits.RBIP = 1;
  1543                           	bsf	((c:4081)),c,0	;volatile
  1544  000320  80F1               	line	36
  1545                           ;interrupts.c: 36:     INTCON3bits.INT2IP = 1;
  1546                           	bsf	((c:4080)),c,7	;volatile
  1547  000322  8EF0               	line	37
  1548                           ;interrupts.c: 37:     INTCON3bits.INT1IP = 1;
  1549                           	bsf	((c:4080)),c,6	;volatile
  1550  000324  8CF0               	line	38
  1551                           ;interrupts.c: 38:     INTCON3bits.INT2IE = 0;
  1552                           	bcf	((c:4080)),c,4	;volatile
  1553  000326  98F0               	line	42
  1554                           ;interrupts.c: 42:     PIE1bits.ADIE = 0;
  1555                           	bcf	((c:3997)),c,6	;volatile
  1556  000328  9C9D               	line	43
  1557                           ;interrupts.c: 43:     PIE1bits.RCIE = 0;
  1558                           	bcf	((c:3997)),c,5	;volatile
  1559  00032A  9A9D               	line	44
  1560                           ;interrupts.c: 44:     PIE1bits.TXIE = 0;
  1561                           	bcf	((c:3997)),c,4	;volatile
  1562  00032C  989D               	line	45
  1563                           ;interrupts.c: 45:     PIE1bits.SSPIE = 0;
  1564                           	bcf	((c:3997)),c,3	;volatile
  1565  00032E  969D               	line	46
  1566                           ;interrupts.c: 46:     PIE1bits.CCP1IE = 0;
  1567                           	bcf	((c:3997)),c,2	;volatile
  1568  000330  949D               	line	47
  1569                           ;interrupts.c: 47:     PIE1bits.TMR2IE = 0;
  1570                           	bcf	((c:3997)),c,1	;volatile
  1571  000332  929D               	line	48
  1572                           ;interrupts.c: 48:     PIE1bits.TMR1IE = 0;
  1573                           	bcf	((c:3997)),c,0	;volatile
  1574  000334  909D               	line	51
  1575                           ;interrupts.c: 51:     PIE2bits.OSCFIE = 0;
  1576                           	bcf	((c:4000)),c,7	;volatile
  1577  000336  9EA0               	line	52
  1578                           ;interrupts.c: 52:     PIE2bits.CMIE = 0;
  1579                           	bcf	((c:4000)),c,6	;volatile
  1580  000338  9CA0               	line	53
  1581                           ;interrupts.c: 53:     PIE2bits.USBIE = 0;
  1582                           	bcf	((c:4000)),c,5	;volatile
  1583  00033A  9AA0               	line	54
  1584                           ;interrupts.c: 54:     PIE2bits.EEIE = 0;
  1585                           	bcf	((c:4000)),c,4	;volatile
  1586  00033C  98A0               	line	55
  1587                           ;interrupts.c: 55:     PIE2bits.BCLIE = 0;
  1588                           	bcf	((c:4000)),c,3	;volatile
  1589  00033E  96A0               	line	56
  1590                           ;interrupts.c: 56:     PIE2bits.HLVDIE = 0;
  1591                           	bcf	((c:4000)),c,2	;volatile
  1592  000340  94A0               	line	57
  1593                           ;interrupts.c: 57:     PIE2bits.TMR3IE = 0;
  1594                           	bcf	((c:4000)),c,1	;volatile
  1595  000342  92A0               	line	58
  1596                           ;interrupts.c: 58:     PIE2bits.CCP2IE = 0;
  1597                           	bcf	((c:4000)),c,0	;volatile
  1598  000344  90A0               	line	64
  1599                           ;interrupts.c: 64:     IPR1bits.ADIP = 1;
  1600                           	bsf	((c:3999)),c,6	;volatile
  1601  000346  8C9F               	line	65
  1602                           ;interrupts.c: 65:     IPR1bits.RCIP = 1;
  1603                           	bsf	((c:3999)),c,5	;volatile
  1604  000348  8A9F               	line	66
  1605                           ;interrupts.c: 66:     IPR1bits.TXIP = 1;
  1606                           	bsf	((c:3999)),c,4	;volatile
  1607  00034A  889F               	line	67
  1608                           ;interrupts.c: 67:     IPR1bits.SSPIP = 1;
  1609                           	bsf	((c:3999)),c,3	;volatile
  1610  00034C  869F               	line	68
  1611                           ;interrupts.c: 68:     IPR1bits.CCP1IP = 1;
  1612                           	bsf	((c:3999)),c,2	;volatile
  1613  00034E  849F               	line	69
  1614                           ;interrupts.c: 69:     IPR1bits.TMR2IP = 1;
  1615                           	bsf	((c:3999)),c,1	;volatile
  1616  000350  829F               	line	70
  1617                           ;interrupts.c: 70:     IPR1bits.TMR1IP = 1;
  1618                           	bsf	((c:3999)),c,0	;volatile
  1619  000352  809F               	line	73
  1620                           ;interrupts.c: 73:     IPR2bits.OSCFIP = 1;
  1621                           	bsf	((c:4002)),c,7	;volatile
  1622  000354  8EA2               	line	74
  1623                           ;interrupts.c: 74:     IPR2bits.CMIP = 1;
  1624                           	bsf	((c:4002)),c,6	;volatile
  1625  000356  8CA2               	line	75
  1626                           ;interrupts.c: 75:     IPR2bits.USBIP = 1;
  1627                           	bsf	((c:4002)),c,5	;volatile
  1628  000358  8AA2               	line	76
  1629                           ;interrupts.c: 76:     IPR2bits.EEIP = 1;
  1630                           	bsf	((c:4002)),c,4	;volatile
  1631  00035A  88A2               	line	77
  1632                           ;interrupts.c: 77:     IPR2bits.BCLIP = 1;
  1633                           	bsf	((c:4002)),c,3	;volatile
  1634  00035C  86A2               	line	78
  1635                           ;interrupts.c: 78:     IPR2bits.HLVDIP = 1;
  1636                           	bsf	((c:4002)),c,2	;volatile
  1637  00035E  84A2               	line	79
  1638                           ;interrupts.c: 79:     IPR2bits.TMR3IP = 1;
  1639                           	bsf	((c:4002)),c,1	;volatile
  1640  000360  82A2               	line	80
  1641                           ;interrupts.c: 80:     IPR2bits.CCP2IP = 1;
  1642                           	bsf	((c:4002)),c,0	;volatile
  1643  000362  80A2               	line	81
  1644                           	
  1645                           l37:
  1646  000364                     	return	;funcret
  1647  000364  0012               	opt stack 0
  1648                           GLOBAL	__end_of_interrupts_Setup
  1649                           	__end_of_interrupts_Setup:
  1650  000366                     	signat	_interrupts_Setup,89
  1651                           	global	_i2C_Setup
  1652                           
  1653 ;; *************** function _i2C_Setup *****************
  1654 ;; Defined at:
  1655 ;;		line 17 in file "i2C.c"
  1656 ;; Parameters:    Size  Location     Type
  1657 ;;		None
  1658 ;; Auto vars:     Size  Location     Type
  1659 ;;		None
  1660 ;; Return value:  Size  Location     Type
  1661 ;;                  1    wreg      void 
  1662 ;; Registers used:
  1663 ;;		wreg, status,2
  1664 ;; Tracked objects:
  1665 ;;		On entry : 0/0
  1666 ;;		On exit  : 0/0
  1667 ;;		Unchanged: 0/0
  1668 ;; Data sizes:     COMRAM   BANK0   BANK1   BANK2   BANK3   BANK4   BANK5   BANK6   BANK7
  1669 ;;      Params:         0       0       0       0       0       0       0       0       0
  1670 ;;      Locals:         0       0       0       0       0       0       0       0       0
  1671 ;;      Temps:          0       0       0       0       0       0       0       0       0
  1672 ;;      Totals:         0       0       0       0       0       0       0       0       0
  1673 ;;Total ram usage:        0 bytes
  1674 ;; Hardware stack levels used:    1
  1675 ;; Hardware stack levels required when called:    1
  1676 ;; This function calls:
  1677 ;;		Nothing
  1678 ;; This function is called by:
  1679 ;;		_main
  1680 ;; This function uses a non-reentrant model
  1681 ;;
  1682                           psect	text2,class=CODE,space=0,reloc=2,group=0
  1683                           	file	"i2C.c"
  1684                           	line	17
  1685                           global __ptext2
  1686                           __ptext2:
  1687  000366                     psect	text2
  1688                           	file	"i2C.c"
  1689                           	line	17
  1690                           	global	__size_of_i2C_Setup
  1691                           	__size_of_i2C_Setup	equ	__end_of_i2C_Setup-_i2C_Setup
  1692  0000                     	
  1693                           _i2C_Setup:
  1694  000366                     ;incstack = 0
  1695                           	opt	stack 29
  1696                           	line	25
  1697                           	
  1698                           l877:
  1699  000366                     ;i2C.c: 25:     TRISBbits.TRISB0 = 1;
  1700                           	bsf	((c:3987)),c,0	;volatile
  1701  000366  8093               	line	26
  1702                           ;i2C.c: 26:     TRISBbits.TRISB1 = 1;
  1703                           	bsf	((c:3987)),c,1	;volatile
  1704  000368  8293               	line	37
  1705                           ;i2C.c: 37:     SSPSTATbits.SMP = 0;
  1706                           	bcf	((c:4039)),c,7	;volatile
  1707  00036A  9EC7               	line	38
  1708                           ;i2C.c: 38:     SSPSTATbits.CKE = 0;
  1709                           	bcf	((c:4039)),c,6	;volatile
  1710  00036C  9CC7               	line	47
  1711                           ;i2C.c: 47:     SSPCON1bits.WCOL = 0;
  1712                           	bcf	((c:4038)),c,7	;volatile
  1713  00036E  9EC6               	line	48
  1714                           ;i2C.c: 48:     SSPCON1bits.SSPOV = 0;
  1715                           	bcf	((c:4038)),c,6	;volatile
  1716  000370  9CC6               	line	49
  1717                           ;i2C.c: 49:     SSPCON1bits.SSPEN = 1;
  1718                           	bsf	((c:4038)),c,5	;volatile
  1719  000372  8AC6               	line	50
  1720                           ;i2C.c: 50:     SSPCON1bits.CKP = 1;
  1721                           	bsf	((c:4038)),c,4	;volatile
  1722  000374  88C6               	line	51
  1723                           ;i2C.c: 51:     SSPCON1bits.SSPM3 = 1;
  1724                           	bsf	((c:4038)),c,3	;volatile
  1725  000376  86C6               	line	52
  1726                           ;i2C.c: 52:     SSPCON1bits.SSPM2 = 0;
  1727                           	bcf	((c:4038)),c,2	;volatile
  1728  000378  94C6               	line	53
  1729                           ;i2C.c: 53:     SSPCON1bits.SSPM1 = 0;
  1730                           	bcf	((c:4038)),c,1	;volatile
  1731  00037A  92C6               	line	54
  1732                           ;i2C.c: 54:     SSPCON1bits.SSPM0 = 0;
  1733                           	bcf	((c:4038)),c,0	;volatile
  1734  00037C  90C6               	line	58
  1735                           ;i2C.c: 58:     SSPCON2bits.GCEN = 0;
  1736                           	bcf	((c:4037)),c,7	;volatile
  1737  00037E  9EC5               	line	59
  1738                           ;i2C.c: 59:     SSPCON2bits.ACKSTAT = 0;
  1739                           	bcf	((c:4037)),c,6	;volatile
  1740  000380  9CC5               	line	60
  1741                           ;i2C.c: 60:     SSPCON2bits.ACKDT = 0;
  1742                           	bcf	((c:4037)),c,5	;volatile
  1743  000382  9AC5               	line	61
  1744                           ;i2C.c: 61:     SSPCON2bits.ACKEN = 0;
  1745                           	bcf	((c:4037)),c,4	;volatile
  1746  000384  98C5               	line	62
  1747                           ;i2C.c: 62:     SSPCON2bits.RCEN = 0;
  1748                           	bcf	((c:4037)),c,3	;volatile
  1749  000386  96C5               	line	63
  1750                           ;i2C.c: 63:     SSPCON2bits.PEN = 0;
  1751                           	bcf	((c:4037)),c,2	;volatile
  1752  000388  94C5               	line	64
  1753                           ;i2C.c: 64:     SSPCON2bits.RSEN = 0;
  1754                           	bcf	((c:4037)),c,1	;volatile
  1755  00038A  92C5               	line	65
  1756                           ;i2C.c: 65:     SSPCON2bits.SEN = 0;
  1757                           	bcf	((c:4037)),c,0	;volatile
  1758  00038C  90C5               	line	68
  1759                           	
  1760                           l879:
  1761  00038E                     ;i2C.c: 68:     SSPADD = 0x27;
  1762                           	movlw	low(027h)
  1763  00038E  0E27               	movwf	((c:4040)),c	;volatile
  1764  000390  6EC8               	line	69
  1765                           	
  1766                           l98:
  1767  000392                     	return	;funcret
  1768  000392  0012               	opt stack 0
  1769                           GLOBAL	__end_of_i2C_Setup
  1770                           	__end_of_i2C_Setup:
  1771  000394                     	signat	_i2C_Setup,89
  1772                           	global	_interrupts_Event
  1773                           
  1774 ;; *************** function _interrupts_Event *****************
  1775 ;; Defined at:
  1776 ;;		line 89 in file "interrupts.c"
  1777 ;; Parameters:    Size  Location     Type
  1778 ;;		None
  1779 ;; Auto vars:     Size  Location     Type
  1780 ;;		None
  1781 ;; Return value:  Size  Location     Type
  1782 ;;                  1    wreg      void 
  1783 ;; Registers used:
  1784 ;;		None
  1785 ;; Tracked objects:
  1786 ;;		On entry : 0/0
  1787 ;;		On exit  : 0/0
  1788 ;;		Unchanged: 0/0
  1789 ;; Data sizes:     COMRAM   BANK0   BANK1   BANK2   BANK3   BANK4   BANK5   BANK6   BANK7
  1790 ;;      Params:         0       0       0       0       0       0       0       0       0
  1791 ;;      Locals:         0       0       0       0       0       0       0       0       0
  1792 ;;      Temps:          0       0       0       0       0       0       0       0       0
  1793 ;;      Totals:         0       0       0       0       0       0       0       0       0
  1794 ;;Total ram usage:        0 bytes
  1795 ;; Hardware stack levels used:    1
  1796 ;; This function calls:
  1797 ;;		Nothing
  1798 ;; This function is called by:
  1799 ;;		Interrupt level 2
  1800 ;; This function uses a non-reentrant model
  1801 ;;
  1802                           psect	intcode,class=CODE,space=0,reloc=2
  1803                           global __pintcode
  1804                           __pintcode:
  1805  000008                     psect	intcode
  1806                           	file	"interrupts.c"
  1807                           	line	89
  1808                           	global	__size_of_interrupts_Event
  1809                           	__size_of_interrupts_Event	equ	__end_of_interrupts_Event-_interrupts_Event
  1810  0000                     	
  1811                           _interrupts_Event:
  1812  000008                     ;incstack = 0
  1813                           	opt	stack 29
  1814                           	bsf int$flags,1,c ;set compiler interrupt flag (level 2)
  1815  000008  8205               	global	int_func
  1816                           	call	int_func,f	;refresh shadow registers
  1817  00000A  ED09  F000         psect	intcode_body,class=CODE,space=0,reloc=2
  1818                           global __pintcode_body
  1819                           __pintcode_body:
  1820  000012                     int_func:
  1821  000012                     
  1822                           	pop	; remove dummy address from shadow register refresh
  1823  000012  0006               	line	93
  1824                           	
  1825                           i2l971:
  1826  000014                     ;interrupts.c: 93:     if (INTCONbits.TMR0IE && INTCONbits.TMR0IF == 1) {
  1827                           	btfss	((c:4082)),c,5	;volatile
  1828  000014  AAF2               	goto	i2u24_41
  1829  000016  EF0F  F000         	goto	i2u24_40
  1830  00001A  EF11  F000         i2u24_41:
  1831  00001E                     	goto	i2l42
  1832  00001E  EF1B  F000         i2u24_40:
  1833  000022                     	
  1834                           i2l973:
  1835  000022                     	btfss	((c:4082)),c,2	;volatile
  1836  000022  A4F2               	goto	i2u25_41
  1837  000024  EF16  F000         	goto	i2u25_40
  1838  000028  EF18  F000         i2u25_41:
  1839  00002C                     	goto	i2l42
  1840  00002C  EF1B  F000         i2u25_40:
  1841  000030                     	line	96
  1842                           	
  1843                           i2l975:
  1844  000030                     ;interrupts.c: 96:         INTCONbits.TMR0IF = 0;
  1845                           	bcf	((c:4082)),c,2	;volatile
  1846  000030  94F2               	line	97
  1847                           ;interrupts.c: 97:     } else if(INTCONbits.INT0IE && INTCONbits.INT0IF == 1) {
  1848                           	goto	i2l81
  1849  000032  EF84  F001         	
  1850                           i2l42:
  1851  000036                     	btfss	((c:4082)),c,4	;volatile
  1852  000036  A8F2               	goto	i2u26_41
  1853  000038  EF20  F000         	goto	i2u26_40
  1854  00003C  EF22  F000         i2u26_41:
  1855  000040                     	goto	i2l44
  1856  000040  EF2C  F000         i2u26_40:
  1857  000044                     	
  1858                           i2l977:
  1859  000044                     	btfss	((c:4082)),c,1	;volatile
  1860  000044  A2F2               	goto	i2u27_41
  1861  000046  EF27  F000         	goto	i2u27_40
  1862  00004A  EF29  F000         i2u27_41:
  1863  00004E                     	goto	i2l44
  1864  00004E  EF2C  F000         i2u27_40:
  1865  000052                     	line	100
  1866                           	
  1867                           i2l979:
  1868  000052                     ;interrupts.c: 100:         INTCONbits.INT0IF = 0;
  1869                           	bcf	((c:4082)),c,1	;volatile
  1870  000052  92F2               	line	101
  1871                           ;interrupts.c: 101:     } else if(INTCONbits.RBIE && INTCONbits.RBIF == 1) {
  1872                           	goto	i2l81
  1873  000054  EF84  F001         	
  1874                           i2l44:
  1875  000058                     	btfss	((c:4082)),c,3	;volatile
  1876  000058  A6F2               	goto	i2u28_41
  1877  00005A  EF31  F000         	goto	i2u28_40
  1878  00005E  EF33  F000         i2u28_41:
  1879  000062                     	goto	i2l46
  1880  000062  EF3D  F000         i2u28_40:
  1881  000066                     	
  1882                           i2l981:
  1883  000066                     	btfss	((c:4082)),c,0	;volatile
  1884  000066  A0F2               	goto	i2u29_41
  1885  000068  EF38  F000         	goto	i2u29_40
  1886  00006C  EF3A  F000         i2u29_41:
  1887  000070                     	goto	i2l46
  1888  000070  EF3D  F000         i2u29_40:
  1889  000074                     	line	104
  1890                           	
  1891                           i2l983:
  1892  000074                     ;interrupts.c: 104:         INTCONbits.RBIF = 0;
  1893                           	bcf	((c:4082)),c,0	;volatile
  1894  000074  90F2               	line	105
  1895                           ;interrupts.c: 105:     } else if(INTCON3bits.INT2IE && INTCON3bits.INT2IF == 1) {
  1896                           	goto	i2l81
  1897  000076  EF84  F001         	
  1898                           i2l46:
  1899  00007A                     	btfss	((c:4080)),c,4	;volatile
  1900  00007A  A8F0               	goto	i2u30_41
  1901  00007C  EF42  F000         	goto	i2u30_40
  1902  000080  EF44  F000         i2u30_41:
  1903  000084                     	goto	i2l48
  1904  000084  EF4E  F000         i2u30_40:
  1905  000088                     	
  1906                           i2l985:
  1907  000088                     	btfss	((c:4080)),c,1	;volatile
  1908  000088  A2F0               	goto	i2u31_41
  1909  00008A  EF49  F000         	goto	i2u31_40
  1910  00008E  EF4B  F000         i2u31_41:
  1911  000092                     	goto	i2l48
  1912  000092  EF4E  F000         i2u31_40:
  1913  000096                     	line	108
  1914                           	
  1915                           i2l987:
  1916  000096                     ;interrupts.c: 108:         INTCON3bits.INT2IF = 0;
  1917                           	bcf	((c:4080)),c,1	;volatile
  1918  000096  92F0               	line	109
  1919                           ;interrupts.c: 109:     } else if(INTCON3bits.INT1IE && INTCON3bits.INT1IF == 1) {
  1920                           	goto	i2l81
  1921  000098  EF84  F001         	
  1922                           i2l48:
  1923  00009C                     	btfss	((c:4080)),c,3	;volatile
  1924  00009C  A6F0               	goto	i2u32_41
  1925  00009E  EF53  F000         	goto	i2u32_40
  1926  0000A2  EF55  F000         i2u32_41:
  1927  0000A6                     	goto	i2l50
  1928  0000A6  EF5F  F000         i2u32_40:
  1929  0000AA                     	
  1930                           i2l989:
  1931  0000AA                     	btfss	((c:4080)),c,0	;volatile
  1932  0000AA  A0F0               	goto	i2u33_41
  1933  0000AC  EF5A  F000         	goto	i2u33_40
  1934  0000B0  EF5C  F000         i2u33_41:
  1935  0000B4                     	goto	i2l50
  1936  0000B4  EF5F  F000         i2u33_40:
  1937  0000B8                     	line	112
  1938                           	
  1939                           i2l991:
  1940  0000B8                     ;interrupts.c: 112:         INTCON3bits.INT1IF = 0;
  1941                           	bcf	((c:4080)),c,0	;volatile
  1942  0000B8  90F0               	line	113
  1943                           ;interrupts.c: 113:     } else if(PIE1bits.ADIE && PIR1bits.ADIF == 1) {
  1944                           	goto	i2l81
  1945  0000BA  EF84  F001         	
  1946                           i2l50:
  1947  0000BE                     	btfss	((c:3997)),c,6	;volatile
  1948  0000BE  AC9D               	goto	i2u34_41
  1949  0000C0  EF64  F000         	goto	i2u34_40
  1950  0000C4  EF66  F000         i2u34_41:
  1951  0000C8                     	goto	i2l52
  1952  0000C8  EF70  F000         i2u34_40:
  1953  0000CC                     	
  1954                           i2l993:
  1955  0000CC                     	btfss	((c:3998)),c,6	;volatile
  1956  0000CC  AC9E               	goto	i2u35_41
  1957  0000CE  EF6B  F000         	goto	i2u35_40
  1958  0000D2  EF6D  F000         i2u35_41:
  1959  0000D6                     	goto	i2l52
  1960  0000D6  EF70  F000         i2u35_40:
  1961  0000DA                     	line	116
  1962                           	
  1963                           i2l995:
  1964  0000DA                     ;interrupts.c: 116:         PIR1bits.ADIF = 0;
  1965                           	bcf	((c:3998)),c,6	;volatile
  1966  0000DA  9C9E               	line	117
  1967                           ;interrupts.c: 117:     } else if(PIE1bits.RCIE && PIR1bits.RCIF == 1) {
  1968                           	goto	i2l81
  1969  0000DC  EF84  F001         	
  1970                           i2l52:
  1971  0000E0                     	btfss	((c:3997)),c,5	;volatile
  1972  0000E0  AA9D               	goto	i2u36_41
  1973  0000E2  EF75  F000         	goto	i2u36_40
  1974  0000E6  EF77  F000         i2u36_41:
  1975  0000EA                     	goto	i2l54
  1976  0000EA  EF81  F000         i2u36_40:
  1977  0000EE                     	
  1978                           i2l997:
  1979  0000EE                     	btfss	((c:3998)),c,5	;volatile
  1980  0000EE  AA9E               	goto	i2u37_41
  1981  0000F0  EF7C  F000         	goto	i2u37_40
  1982  0000F4  EF7E  F000         i2u37_41:
  1983  0000F8                     	goto	i2l54
  1984  0000F8  EF81  F000         i2u37_40:
  1985  0000FC                     	line	120
  1986                           	
  1987                           i2l999:
  1988  0000FC                     ;interrupts.c: 120:         PIR1bits.RCIF = 0;
  1989                           	bcf	((c:3998)),c,5	;volatile
  1990  0000FC  9A9E               	line	121
  1991                           ;interrupts.c: 121:     } else if(PIE1bits.TXIE && PIR1bits.TXIF == 1) {
  1992                           	goto	i2l81
  1993  0000FE  EF84  F001         	
  1994                           i2l54:
  1995  000102                     	btfss	((c:3997)),c,4	;volatile
  1996  000102  A89D               	goto	i2u38_41
  1997  000104  EF86  F000         	goto	i2u38_40
  1998  000108  EF88  F000         i2u38_41:
  1999  00010C                     	goto	i2l56
  2000  00010C  EF92  F000         i2u38_40:
  2001  000110                     	
  2002                           i2l1001:
  2003  000110                     	btfss	((c:3998)),c,4	;volatile
  2004  000110  A89E               	goto	i2u39_41
  2005  000112  EF8D  F000         	goto	i2u39_40
  2006  000116  EF8F  F000         i2u39_41:
  2007  00011A                     	goto	i2l56
  2008  00011A  EF92  F000         i2u39_40:
  2009  00011E                     	line	124
  2010                           	
  2011                           i2l1003:
  2012  00011E                     ;interrupts.c: 124:         PIR1bits.TXIF = 0;
  2013                           	bcf	((c:3998)),c,4	;volatile
  2014  00011E  989E               	line	125
  2015                           ;interrupts.c: 125:     } else if(PIR1bits.SSPIF && PIR1bits.SSPIF == 1) {
  2016                           	goto	i2l81
  2017  000120  EF84  F001         	
  2018                           i2l56:
  2019  000124                     	btfss	((c:3998)),c,3	;volatile
  2020  000124  A69E               	goto	i2u40_41
  2021  000126  EF97  F000         	goto	i2u40_40
  2022  00012A  EF99  F000         i2u40_41:
  2023  00012E                     	goto	i2l58
  2024  00012E  EFA3  F000         i2u40_40:
  2025  000132                     	
  2026                           i2l1005:
  2027  000132                     	btfss	((c:3998)),c,3	;volatile
  2028  000132  A69E               	goto	i2u41_41
  2029  000134  EF9E  F000         	goto	i2u41_40
  2030  000138  EFA0  F000         i2u41_41:
  2031  00013C                     	goto	i2l58
  2032  00013C  EFA3  F000         i2u41_40:
  2033  000140                     	line	128
  2034                           	
  2035                           i2l1007:
  2036  000140                     ;interrupts.c: 128:         PIR1bits.SSPIF = 0;
  2037                           	bcf	((c:3998)),c,3	;volatile
  2038  000140  969E               	line	129
  2039                           ;interrupts.c: 129:     } else if(PIE1bits.CCP1IE && PIR1bits.CCP1IF == 1) {
  2040                           	goto	i2l81
  2041  000142  EF84  F001         	
  2042                           i2l58:
  2043  000146                     	btfss	((c:3997)),c,2	;volatile
  2044  000146  A49D               	goto	i2u42_41
  2045  000148  EFA8  F000         	goto	i2u42_40
  2046  00014C  EFAA  F000         i2u42_41:
  2047  000150                     	goto	i2l60
  2048  000150  EFB4  F000         i2u42_40:
  2049  000154                     	
  2050                           i2l1009:
  2051  000154                     	btfss	((c:3998)),c,2	;volatile
  2052  000154  A49E               	goto	i2u43_41
  2053  000156  EFAF  F000         	goto	i2u43_40
  2054  00015A  EFB1  F000         i2u43_41:
  2055  00015E                     	goto	i2l60
  2056  00015E  EFB4  F000         i2u43_40:
  2057  000162                     	line	132
  2058                           	
  2059                           i2l1011:
  2060  000162                     ;interrupts.c: 132:         PIR1bits.CCP1IF = 0;
  2061                           	bcf	((c:3998)),c,2	;volatile
  2062  000162  949E               	line	133
  2063                           ;interrupts.c: 133:     } else if(PIE1bits.TMR2IE && PIR1bits.TMR2IF == 1) {
  2064                           	goto	i2l81
  2065  000164  EF84  F001         	
  2066                           i2l60:
  2067  000168                     	btfss	((c:3997)),c,1	;volatile
  2068  000168  A29D               	goto	i2u44_41
  2069  00016A  EFB9  F000         	goto	i2u44_40
  2070  00016E  EFBB  F000         i2u44_41:
  2071  000172                     	goto	i2l62
  2072  000172  EFC5  F000         i2u44_40:
  2073  000176                     	
  2074                           i2l1013:
  2075  000176                     	btfss	((c:3998)),c,1	;volatile
  2076  000176  A29E               	goto	i2u45_41
  2077  000178  EFC0  F000         	goto	i2u45_40
  2078  00017C  EFC2  F000         i2u45_41:
  2079  000180                     	goto	i2l62
  2080  000180  EFC5  F000         i2u45_40:
  2081  000184                     	line	136
  2082                           	
  2083                           i2l1015:
  2084  000184                     ;interrupts.c: 136:         PIR1bits.TMR2IF = 0;
  2085                           	bcf	((c:3998)),c,1	;volatile
  2086  000184  929E               	line	137
  2087                           ;interrupts.c: 137:     } else if(PIE1bits.TMR1IE && PIR1bits.TMR1IF == 1) {
  2088                           	goto	i2l81
  2089  000186  EF84  F001         	
  2090                           i2l62:
  2091  00018A                     	btfss	((c:3997)),c,0	;volatile
  2092  00018A  A09D               	goto	i2u46_41
  2093  00018C  EFCA  F000         	goto	i2u46_40
  2094  000190  EFCC  F000         i2u46_41:
  2095  000194                     	goto	i2l64
  2096  000194  EFD6  F000         i2u46_40:
  2097  000198                     	
  2098                           i2l1017:
  2099  000198                     	btfss	((c:3998)),c,0	;volatile
  2100  000198  A09E               	goto	i2u47_41
  2101  00019A  EFD1  F000         	goto	i2u47_40
  2102  00019E  EFD3  F000         i2u47_41:
  2103  0001A2                     	goto	i2l64
  2104  0001A2  EFD6  F000         i2u47_40:
  2105  0001A6                     	line	140
  2106                           	
  2107                           i2l1019:
  2108  0001A6                     ;interrupts.c: 140:         PIR1bits.TMR1IF = 0;
  2109                           	bcf	((c:3998)),c,0	;volatile
  2110  0001A6  909E               	line	141
  2111                           ;interrupts.c: 141:     } else if(PIE2bits.OSCFIE && PIR2bits.OSCFIF == 1) {
  2112                           	goto	i2l81
  2113  0001A8  EF84  F001         	
  2114                           i2l64:
  2115  0001AC                     	btfss	((c:4000)),c,7	;volatile
  2116  0001AC  AEA0               	goto	i2u48_41
  2117  0001AE  EFDB  F000         	goto	i2u48_40
  2118  0001B2  EFDD  F000         i2u48_41:
  2119  0001B6                     	goto	i2l66
  2120  0001B6  EFE7  F000         i2u48_40:
  2121  0001BA                     	
  2122                           i2l1021:
  2123  0001BA                     	btfss	((c:4001)),c,7	;volatile
  2124  0001BA  AEA1               	goto	i2u49_41
  2125  0001BC  EFE2  F000         	goto	i2u49_40
  2126  0001C0  EFE4  F000         i2u49_41:
  2127  0001C4                     	goto	i2l66
  2128  0001C4  EFE7  F000         i2u49_40:
  2129  0001C8                     	line	144
  2130                           	
  2131                           i2l1023:
  2132  0001C8                     ;interrupts.c: 144:         PIR2bits.OSCFIF = 0;
  2133                           	bcf	((c:4001)),c,7	;volatile
  2134  0001C8  9EA1               	line	145
  2135                           ;interrupts.c: 145:     } else if(PIE2bits.CMIE && PIR2bits.CMIF == 1) {
  2136                           	goto	i2l81
  2137  0001CA  EF84  F001         	
  2138                           i2l66:
  2139  0001CE                     	btfss	((c:4000)),c,6	;volatile
  2140  0001CE  ACA0               	goto	i2u50_41
  2141  0001D0  EFEC  F000         	goto	i2u50_40
  2142  0001D4  EFEE  F000         i2u50_41:
  2143  0001D8                     	goto	i2l68
  2144  0001D8  EFF8  F000         i2u50_40:
  2145  0001DC                     	
  2146                           i2l1025:
  2147  0001DC                     	btfss	((c:4001)),c,6	;volatile
  2148  0001DC  ACA1               	goto	i2u51_41
  2149  0001DE  EFF3  F000         	goto	i2u51_40
  2150  0001E2  EFF5  F000         i2u51_41:
  2151  0001E6                     	goto	i2l68
  2152  0001E6  EFF8  F000         i2u51_40:
  2153  0001EA                     	line	148
  2154                           	
  2155                           i2l1027:
  2156  0001EA                     ;interrupts.c: 148:         PIR2bits.CMIF = 0;
  2157                           	bcf	((c:4001)),c,6	;volatile
  2158  0001EA  9CA1               	line	149
  2159                           ;interrupts.c: 149:     } else if(PIE2bits.USBIE && PIR2bits.USBIF == 1) {
  2160                           	goto	i2l81
  2161  0001EC  EF84  F001         	
  2162                           i2l68:
  2163  0001F0                     	btfss	((c:4000)),c,5	;volatile
  2164  0001F0  AAA0               	goto	i2u52_41
  2165  0001F2  EFFD  F000         	goto	i2u52_40
  2166  0001F6  EFFF  F000         i2u52_41:
  2167  0001FA                     	goto	i2l70
  2168  0001FA  EF09  F001         i2u52_40:
  2169  0001FE                     	
  2170                           i2l1029:
  2171  0001FE                     	btfss	((c:4001)),c,5	;volatile
  2172  0001FE  AAA1               	goto	i2u53_41
  2173  000200  EF04  F001         	goto	i2u53_40
  2174  000204  EF06  F001         i2u53_41:
  2175  000208                     	goto	i2l70
  2176  000208  EF09  F001         i2u53_40:
  2177  00020C                     	line	152
  2178                           	
  2179                           i2l1031:
  2180  00020C                     ;interrupts.c: 152:         PIR2bits.USBIF = 0;
  2181                           	bcf	((c:4001)),c,5	;volatile
  2182  00020C  9AA1               	line	153
  2183                           ;interrupts.c: 153:     } else if(PIE2bits.EEIE && PIR2bits.EEIF == 1) {
  2184                           	goto	i2l81
  2185  00020E  EF84  F001         	
  2186                           i2l70:
  2187  000212                     	btfss	((c:4000)),c,4	;volatile
  2188  000212  A8A0               	goto	i2u54_41
  2189  000214  EF0E  F001         	goto	i2u54_40
  2190  000218  EF10  F001         i2u54_41:
  2191  00021C                     	goto	i2l72
  2192  00021C  EF1A  F001         i2u54_40:
  2193  000220                     	
  2194                           i2l1033:
  2195  000220                     	btfss	((c:4001)),c,4	;volatile
  2196  000220  A8A1               	goto	i2u55_41
  2197  000222  EF15  F001         	goto	i2u55_40
  2198  000226  EF17  F001         i2u55_41:
  2199  00022A                     	goto	i2l72
  2200  00022A  EF1A  F001         i2u55_40:
  2201  00022E                     	line	156
  2202                           	
  2203                           i2l1035:
  2204  00022E                     ;interrupts.c: 156:         PIR2bits.EEIF = 0;
  2205                           	bcf	((c:4001)),c,4	;volatile
  2206  00022E  98A1               	line	157
  2207                           ;interrupts.c: 157:     } else if(PIE2bits.BCLIE && PIR2bits.BCLIF == 1) {
  2208                           	goto	i2l81
  2209  000230  EF84  F001         	
  2210                           i2l72:
  2211  000234                     	btfss	((c:4000)),c,3	;volatile
  2212  000234  A6A0               	goto	i2u56_41
  2213  000236  EF1F  F001         	goto	i2u56_40
  2214  00023A  EF21  F001         i2u56_41:
  2215  00023E                     	goto	i2l74
  2216  00023E  EF2B  F001         i2u56_40:
  2217  000242                     	
  2218                           i2l1037:
  2219  000242                     	btfss	((c:4001)),c,3	;volatile
  2220  000242  A6A1               	goto	i2u57_41
  2221  000244  EF26  F001         	goto	i2u57_40
  2222  000248  EF28  F001         i2u57_41:
  2223  00024C                     	goto	i2l74
  2224  00024C  EF2B  F001         i2u57_40:
  2225  000250                     	line	160
  2226                           	
  2227                           i2l1039:
  2228  000250                     ;interrupts.c: 160:         PIR2bits.BCLIF = 0;
  2229                           	bcf	((c:4001)),c,3	;volatile
  2230  000250  96A1               	line	161
  2231                           ;interrupts.c: 161:     } else if(PIE2bits.HLVDIE && PIR2bits.HLVDIF == 1) {
  2232                           	goto	i2l81
  2233  000252  EF84  F001         	
  2234                           i2l74:
  2235  000256                     	btfss	((c:4000)),c,2	;volatile
  2236  000256  A4A0               	goto	i2u58_41
  2237  000258  EF30  F001         	goto	i2u58_40
  2238  00025C  EF32  F001         i2u58_41:
  2239  000260                     	goto	i2l76
  2240  000260  EF3C  F001         i2u58_40:
  2241  000264                     	
  2242                           i2l1041:
  2243  000264                     	btfss	((c:4001)),c,2	;volatile
  2244  000264  A4A1               	goto	i2u59_41
  2245  000266  EF37  F001         	goto	i2u59_40
  2246  00026A  EF39  F001         i2u59_41:
  2247  00026E                     	goto	i2l76
  2248  00026E  EF3C  F001         i2u59_40:
  2249  000272                     	line	164
  2250                           	
  2251                           i2l1043:
  2252  000272                     ;interrupts.c: 164:         PIR2bits.HLVDIF = 0;
  2253                           	bcf	((c:4001)),c,2	;volatile
  2254  000272  94A1               	line	165
  2255                           ;interrupts.c: 165:     } else if(PIE2bits.TMR3IE && PIR2bits.TMR3IF == 1) {
  2256                           	goto	i2l81
  2257  000274  EF84  F001         	
  2258                           i2l76:
  2259  000278                     	btfss	((c:4000)),c,1	;volatile
  2260  000278  A2A0               	goto	i2u60_41
  2261  00027A  EF41  F001         	goto	i2u60_40
  2262  00027E  EF43  F001         i2u60_41:
  2263  000282                     	goto	i2l78
  2264  000282  EF4D  F001         i2u60_40:
  2265  000286                     	
  2266                           i2l1045:
  2267  000286                     	btfss	((c:4001)),c,1	;volatile
  2268  000286  A2A1               	goto	i2u61_41
  2269  000288  EF48  F001         	goto	i2u61_40
  2270  00028C  EF4A  F001         i2u61_41:
  2271  000290                     	goto	i2l78
  2272  000290  EF4D  F001         i2u61_40:
  2273  000294                     	line	168
  2274                           	
  2275                           i2l1047:
  2276  000294                     ;interrupts.c: 168:         PIR2bits.TMR3IF = 0;
  2277                           	bcf	((c:4001)),c,1	;volatile
  2278  000294  92A1               	line	169
  2279                           ;interrupts.c: 169:     } else if(PIE2bits.CCP2IE && PIR2bits.CCP2IF == 1) {
  2280                           	goto	i2l81
  2281  000296  EF84  F001         	
  2282                           i2l78:
  2283  00029A                     	btfss	((c:4000)),c,0	;volatile
  2284  00029A  A0A0               	goto	i2u62_41
  2285  00029C  EF52  F001         	goto	i2u62_40
  2286  0002A0  EF54  F001         i2u62_41:
  2287  0002A4                     	goto	i2l81
  2288  0002A4  EF84  F001         i2u62_40:
  2289  0002A8                     	
  2290                           i2l1049:
  2291  0002A8                     	btfss	((c:4001)),c,0	;volatile
  2292  0002A8  A0A1               	goto	i2u63_41
  2293  0002AA  EF59  F001         	goto	i2u63_40
  2294  0002AE  EF5B  F001         i2u63_41:
  2295  0002B2                     	goto	i2l81
  2296  0002B2  EF84  F001         i2u63_40:
  2297  0002B6                     	line	172
  2298                           	
  2299                           i2l1051:
  2300  0002B6                     ;interrupts.c: 172:         PIR2bits.CCP2IF = 0;
  2301                           	bcf	((c:4001)),c,0	;volatile
  2302  0002B6  90A1               	goto	i2l81
  2303  0002B8  EF84  F001         	line	173
  2304                           ;interrupts.c: 173:     }
  2305                           	
  2306                           i2l80:
  2307  0002BC                     	goto	i2l81
  2308  0002BC  EF84  F001         	
  2309                           i2l79:
  2310  0002C0                     	goto	i2l81
  2311  0002C0  EF84  F001         	
  2312                           i2l77:
  2313  0002C4                     	goto	i2l81
  2314  0002C4  EF84  F001         	
  2315                           i2l75:
  2316  0002C8                     	goto	i2l81
  2317  0002C8  EF84  F001         	
  2318                           i2l73:
  2319  0002CC                     	goto	i2l81
  2320  0002CC  EF84  F001         	
  2321                           i2l71:
  2322  0002D0                     	goto	i2l81
  2323  0002D0  EF84  F001         	
  2324                           i2l69:
  2325  0002D4                     	goto	i2l81
  2326  0002D4  EF84  F001         	
  2327                           i2l67:
  2328  0002D8                     	goto	i2l81
  2329  0002D8  EF84  F001         	
  2330                           i2l65:
  2331  0002DC                     	goto	i2l81
  2332  0002DC  EF84  F001         	
  2333                           i2l63:
  2334  0002E0                     	goto	i2l81
  2335  0002E0  EF84  F001         	
  2336                           i2l61:
  2337  0002E4                     	goto	i2l81
  2338  0002E4  EF84  F001         	
  2339                           i2l59:
  2340  0002E8                     	goto	i2l81
  2341  0002E8  EF84  F001         	
  2342                           i2l57:
  2343  0002EC                     	goto	i2l81
  2344  0002EC  EF84  F001         	
  2345                           i2l55:
  2346  0002F0                     	goto	i2l81
  2347  0002F0  EF84  F001         	
  2348                           i2l53:
  2349  0002F4                     	goto	i2l81
  2350  0002F4  EF84  F001         	
  2351                           i2l51:
  2352  0002F8                     	goto	i2l81
  2353  0002F8  EF84  F001         	
  2354                           i2l49:
  2355  0002FC                     	goto	i2l81
  2356  0002FC  EF84  F001         	
  2357                           i2l47:
  2358  000300                     	goto	i2l81
  2359  000300  EF84  F001         	
  2360                           i2l45:
  2361  000304                     	goto	i2l81
  2362  000304  EF84  F001         	
  2363                           i2l43:
  2364  000308                     	line	174
  2365                           	
  2366                           i2l81:
  2367  000308                     	bcf int$flags,1,c ;clear compiler interrupt flag (level 2)
  2368  000308  9205               	retfie f
  2369  00030A  0011               	opt stack 0
  2370                           GLOBAL	__end_of_interrupts_Event
  2371                           	__end_of_interrupts_Event:
  2372  00030C                     	signat	_interrupts_Event,89
  2373                           	GLOBAL	__activetblptr
  2374                           __activetblptr	EQU	0
  2375  0000                     	psect	intsave_regs,class=BIGRAM,space=1,noexec
  2376                           	PSECT	rparam,class=COMRAM,space=1,noexec
  2377                           	GLOBAL	__Lrparam
  2378                           	FNCONF	rparam,??,?
  2379                           	GLOBAL	___rparam_used
  2380                           	___rparam_used EQU 1
  2381  0000                     	GLOBAL	___param_bank
  2382                           	___param_bank EQU 0
  2383  0000                     GLOBAL	__Lparam, __Hparam
  2384                           GLOBAL	__Lrparam, __Hrparam
  2385                           __Lparam	EQU	__Lrparam
  2386  0000                     __Hparam	EQU	__Hrparam
  2387  0000                            psect   temp,common,ovrld,class=COMRAM,space=1
  2388                           	global	btemp
  2389                           btemp:
  2390  000005                     	ds	1
  2391  000005                     	global	int$flags
  2392                           	int$flags	set btemp
  2393  0000                     	global	wtemp8
  2394                           	wtemp8 set btemp+1
  2395  0000                     	global	ttemp5
  2396                           	ttemp5 set btemp+1
  2397  0000                     	global	ttemp6
  2398                           	ttemp6 set btemp+4
  2399  0000                     	global	ttemp7
  2400                           	ttemp7 set btemp+8
  2401  0000                     	end


Data Sizes:
    Strings     0
    Constant    0
    Data        0
    BSS         4
    Persistent  0
    Stack       0

Auto Spaces:
    Space          Size  Autos    Used
    COMRAM           94      0       4
    BANK0           160      0       0
    BANK1           256      0       0
    BANK2           256      0       0
    BANK3           256      0       0
    BANK4           256      0       0
    BANK5           256      0       0
    BANK6           256      0       0
    BANK7           256      0       0

Pointer List with Targets:

    None.

Critical Paths under _main in COMRAM

    None.

Critical Paths under _interrupts_Event in COMRAM

    None.

Critical Paths under _main in BANK0

    None.

Critical Paths under _interrupts_Event in BANK0

    None.

Critical Paths under _main in BANK1

    None.

Critical Paths under _interrupts_Event in BANK1

    None.

Critical Paths under _main in BANK2

    None.

Critical Paths under _interrupts_Event in BANK2

    None.

Critical Paths under _main in BANK3

    None.

Critical Paths under _interrupts_Event in BANK3

    None.

Critical Paths under _main in BANK4

    None.

Critical Paths under _interrupts_Event in BANK4

    None.

Critical Paths under _main in BANK5

    None.

Critical Paths under _interrupts_Event in BANK5

    None.

Critical Paths under _main in BANK6

    None.

Critical Paths under _interrupts_Event in BANK6

    None.

Critical Paths under _main in BANK7

    None.

Critical Paths under _interrupts_Event in BANK7

    None.

Call Graph Tables:

 ---------------------------------------------------------------------------------
 (Depth) Function   	        Calls       Base Space   Used Autos Params    Refs
 ---------------------------------------------------------------------------------
 (0) _main                                                 0     0      0       0
                          _i2C_Setup
                   _interrupts_Setup
 ---------------------------------------------------------------------------------
 (1) _interrupts_Setup                                     0     0      0       0
 ---------------------------------------------------------------------------------
 (1) _i2C_Setup                                            0     0      0       0
 ---------------------------------------------------------------------------------
 Estimated maximum stack depth 1
 ---------------------------------------------------------------------------------
 (Depth) Function   	        Calls       Base Space   Used Autos Params    Refs
 ---------------------------------------------------------------------------------
 (2) _interrupts_Event                                     0     0      0       0
 ---------------------------------------------------------------------------------
 Estimated maximum stack depth 2
 ---------------------------------------------------------------------------------

 Call Graph Graphs:

 _main (ROOT)
   _i2C_Setup
   _interrupts_Setup

 _interrupts_Event (ROOT)

 Address spaces:
Name               Size   Autos  Total    Cost      Usage
BIGRAM             7FF      0       0      21        0.0%
EEDATA             100      0       0       0        0.0%
BITBANK7           100      0       0      18        0.0%
BANK7              100      0       0      19        0.0%
BITBANK6           100      0       0      16        0.0%
BANK6              100      0       0      17        0.0%
BITBANK5           100      0       0      14        0.0%
BANK5              100      0       0      15        0.0%
BITBANK4           100      0       0      12        0.0%
BANK4              100      0       0      13        0.0%
BITBANK3           100      0       0      10        0.0%
BANK3              100      0       0      11        0.0%
BITBANK2           100      0       0       8        0.0%
BANK2              100      0       0       9        0.0%
BITBANK1           100      0       0       6        0.0%
BANK1              100      0       0       7        0.0%
BITBANK0            A0      0       0       4        0.0%
BANK0               A0      0       0       5        0.0%
BITCOMRAM           5E      0       0       0        0.0%
COMRAM              5E      0       4       1        4.3%
BITSFR               0      0       0     200        0.0%
SFR                  0      0       0     200        0.0%
STACK                0      0       0       2        0.0%
NULL                 0      0       0       0        0.0%
ABS                  0      0       4      20        0.0%
DATA                 0      0       4       3        0.0%
CODE                 0      0       0       0        0.0%


Microchip Technology PIC18 Macro Assembler V2.00 build -1524193055 
Symbol Table                                                                                   Sun Dec 02 01:09:49 2018

               _SSPSTATbits 000FC7                          l13 03B8                          l14 03B8  
                        l15 03BC                          l16 03BC                          l37 0364  
                        l98 0392                         l941 0398                         l951 03A4  
                       l943 039C                         l961 03AE                         l953 03A6  
                       l945 039E                         l875 030C                         l963 03B0  
                       l955 03A8                         l947 03A0                         l939 0394  
                       l877 0366                         l965 03B2                         l957 03AA  
                       l949 03A2                         l879 038E                         l967 03B4  
                       l959 03AC                         l969 03B6                __CFG_WDT$OFF 000000  
                      i2l50 00BE                        i2l42 0036                        i2l43 0308  
                      i2l51 02F8                        i2l60 0168                        i2l52 00E0  
                      i2l44 0058                        i2l45 0304                        i2l53 02F4  
                      i2l61 02E4                        i2l70 0212                        i2l62 018A  
                      i2l54 0102                        i2l46 007A                        i2l47 0300  
                      i2l55 02F0                        i2l63 02E0                        i2l71 02D0  
                      i2l80 02BC                        i2l72 0234                        i2l64 01AC  
                      i2l56 0124                        i2l48 009C                        i2l49 02FC  
                      i2l57 02EC                        i2l65 02DC                        i2l73 02CC  
                      i2l81 0308                        i2l74 0256                        i2l66 01CE  
                      i2l58 0146                        i2l59 02E8                        i2l67 02D8  
                      i2l75 02C8                        i2l76 0278                        i2l68 01F0  
                      i2l69 02D4                        i2l77 02C4                        i2l78 029A  
                      i2l79 02C0                        _main 0394                        btemp 0005  
                      start 000E                ___param_bank 000000                       ?_main 0000  
  __end_of_interrupts_Event 030C                       i2l971 0014                       i2l981 0066  
                     i2l973 0022                       i2l991 00B8                       i2l983 0074  
                     i2l975 0030                       i2l993 00CC                       i2l985 0088  
                     i2l977 0044                       i2l995 00DA                       i2l987 0096  
                     i2l979 0052                       i2l997 00EE                       i2l989 00AA  
                     i2l999 00FC    __end_of_interrupts_Setup 0366                       ttemp5 0006  
                     ttemp6 0009                       ttemp7 000D                       wtemp8 0006  
            __CFG_MCLRE$OFF 000000             __initialization 03C0                __end_of_main 03C0  
        __size_of_i2C_Setup 002E                      ??_main 0000               __activetblptr 000000  
                    i2l1001 0110                      i2l1011 0162                      i2l1003 011E  
                    i2l1021 01BA                      i2l1013 0176                      i2l1005 0132  
                    i2l1031 020C                      i2l1023 01C8                      i2l1015 0184  
                    i2l1007 0140                      i2l1041 0264                      i2l1033 0220  
                    i2l1025 01DC                      i2l1017 0198                      i2l1009 0154  
                    i2l1051 02B6                      i2l1043 0272                      i2l1035 022E  
                    i2l1027 01EA                      i2l1019 01A6                      i2l1045 0286  
                    i2l1037 0242                      i2l1029 01FE                      i2l1047 0294  
                    i2l1039 0250                      i2l1049 02A8                      _SSPADD 000FC8  
                    _SSPBUF 000FC9           __end_of_i2C_Setup 0394                  __accesstop 0060  
   __end_of__initialization 03C8               ___rparam_used 000001              __pcstackCOMRAM 0000  
         ?_interrupts_Event 0000           ?_interrupts_Setup 0000          ??_interrupts_Event 0000  
                   i2u30_40 0088                     i2u30_41 0084                     i2u31_40 0096  
                   i2u31_41 0092                     i2u40_40 0132                     i2u32_40 00AA  
                   i2u24_40 0022                     i2u40_41 012E                     i2u32_41 00A6  
                   i2u24_41 001E                     i2u41_40 0140                     i2u33_40 00B8  
                   i2u25_40 0030                     i2u41_41 013C                     i2u33_41 00B4  
                   i2u25_41 002C                     i2u50_40 01DC                     i2u42_40 0154  
                   i2u34_40 00CC                     i2u26_40 0044                     i2u50_41 01D8  
                   i2u42_41 0150                     i2u34_41 00C8                     i2u26_41 0040  
                   i2u51_40 01EA                     i2u43_40 0162                     i2u35_40 00DA  
                   i2u27_40 0052                     i2u51_41 01E6                     i2u43_41 015E  
                   i2u35_41 00D6                     i2u27_41 004E                     i2u60_40 0286  
                   i2u52_40 01FE                     i2u44_40 0176                     i2u36_40 00EE  
                   i2u28_40 0066                     i2u60_41 0282                     i2u52_41 01FA  
                   i2u44_41 0172                     i2u36_41 00EA                     i2u28_41 0062  
                   i2u61_40 0294                     i2u53_40 020C                     i2u45_40 0184  
                   i2u37_40 00FC                     i2u29_40 0074                     i2u61_41 0290  
                   i2u53_41 0208                     i2u45_41 0180                     i2u37_41 00F8  
                   i2u29_41 0070                     i2u62_40 02A8                     i2u54_40 0220  
                   i2u46_40 0198                     i2u38_40 0110                     i2u62_41 02A4  
                   i2u54_41 021C                     i2u46_41 0194                     i2u38_41 010C  
                   i2u63_40 02B6                     i2u55_40 022E                     i2u47_40 01A6  
                   i2u39_40 011E                     i2u63_41 02B2                     i2u55_41 022A  
                   i2u47_41 01A2                     i2u39_41 011A                     i2u56_40 0242  
                   i2u48_40 01BA                     i2u56_41 023E                     i2u48_41 01B6  
                   i2u57_40 0250                     i2u49_40 01C8                     i2u57_41 024C  
                   i2u49_41 01C4                     i2u58_40 0264                     i2u58_41 0260  
                   i2u59_40 0272                     i2u59_41 026E          ??_interrupts_Setup 0000  
                   __Hparam 0000                     __Lparam 0000                     __pcinit 03C0  
                   __ramtop 0800                     __ptext0 0394                     __ptext1 030C  
                   __ptext2 0366                   _T0CONbits 000FD5              __pintcode_body 0012  
      end_of_initialization 03C8                     int_func 0012                   _TRISBbits 000F93  
                 _i2C_Setup 0366         start_initialization 03C0                  ?_i2C_Setup 0000  
               __pbssCOMRAM 0001   __size_of_interrupts_Event 0304   __size_of_interrupts_Setup 005A  
                 __pintcode 0008                    _IPR1bits 000F9F                 ??_i2C_Setup 0000  
                  _IPR2bits 000FA2                    _PIE1bits 000F9D                    _PIE2bits 000FA0  
                  _PIR1bits 000F9E                    _PIR2bits 000FA1                 _INTCON2bits 000FF1  
               _INTCON3bits 000FF0                    __Hrparam 0000                    __Lrparam 0000  
             __size_of_main 002C            _interrupts_Event 0008            _interrupts_Setup 030C  
                  int$flags 0005     vl53l0x_i2C_SendData@F21 0001                  _INTCONbits 000FF2  
                  intlevel2 0000         __CFG_FOSC$INTOSC_EC 000000  vl53l0x_I2C_ReceiveData@F26 0004  
vl53l0x_I2C_ReceiveData@F28 0003                 _SSPCON1bits 000FC6                 _SSPCON2bits 000FC5  
