

Microchip Technology PIC18 LITE Macro Assembler V2.00 build -1524193055 
                                                                                               Sun Dec 02 01:36:38 2018

Microchip Technology Omniscient Code Generator v2.00 (Free mode) build 20180527130849
     1  0000                     
     2                           ; Version 2.00
     3                           ; Generated 27/05/2018 GMT
     4                           
     5                           ; 
     6                           ; Copyright © 2018, Microchip Technology Inc. and its subsidiaries ("Microchip")
     7                           ; All rights reserved.
     8                           ; 
     9                           ; This software is developed by Microchip Technology Inc. and its subsidiaries ("Microch
                                 ip").
    10                           ; 
    11                           ; Redistribution and use in source and binary forms, with or without modification, are
    12                           ; permitted provided that the following conditions are met:
    13                           ; 
    14                           ;     1. Redistributions of source code must retain the above copyright notice, this lis
                                 t of
    15                           ;        conditions and the following disclaimer.
    16                           ; 
    17                           ;     2. Redistributions in binary form must reproduce the above copyright notice, this 
                                 list
    18                           ;        of conditions and the following disclaimer in the documentation and/or other
    19                           ;        materials provided with the distribution.
    20                           ; 
    21                           ;     3. Microchip's name may not be used to endorse or promote products derived from th
                                 is
    22                           ;        software without specific prior written permission.
    23                           ; 
    24                           ; THIS SOFTWARE IS PROVIDED BY MICROCHIP "AS IS" AND ANY EXPRESS OR IMPLIED WARRANTIES,

    25                           ; INCLUDING, BUT NOT LIMITED TO, THE IMPLIED WARRANTIES OF MERCHANTABILITY AND FITNESS F
                                 OR
    26                           ; PURPOSE ARE DISCLAIMED.  IN NO EVENT SHALL MICROCHIP BE LIABLE FOR ANY DIRECT, INDIREC
                                 T,
    27                           ; INCIDENTAL, SPECIAL, EXEMPLARY, OR CONSEQUENTIAL DAMAGES (INCLUDING BUT NOT LIMITED TO
                                 
    28                           ; PROCUREMENT OF SUBSTITUTE GOODS OR SERVICES; LOSS OF USE, DATA OR PROFITS; OR BUSINESS
                                 
    29                           ; INTERRUPTION) HOWSOEVER CAUSED AND ON ANY THEORY OF LIABILITY, WHETHER IN CONTRACT, ST
                                 RICT
    30                           ; LIABILITY, OR TORT (INCLUDING NEGLIGENCE OR OTHERWISE) ARISING IN ANY WAY OUT OF THE U
                                 SE OF
    31                           ; THIS SOFTWARE, EVEN IF ADVISED OF THE POSSIBILITY OF SUCH DAMAGE.
    32                           ; 
    33                           
    34                           
    35                           ; 
    36                           ; Code-generator required, PIC18F2550 Definitions
    37                           ; 
    38  0000                     fsr0 equ 0FE9h
    39  0000                     fsr0h equ 0FEAh
    40  0000                     fsr0l equ 0FE9h
    41  0000                     fsr1 equ 0FE1h
    42  0000                     fsr1h equ 0FE2h
    43  0000                     fsr1l equ 0FE1h
    44  0000                     fsr2 equ 0FD9h
    45  0000                     fsr2h equ 0FDAh
    46  0000                     fsr2l equ 0FD9h
    47  0000                     indf0 equ 0FEFh
    48  0000                     indf1 equ 0FE7h
    49  0000                     indf2 equ 0FDFh
    50  0000                     intcon equ 0FF2h
    51  0000                     nvmcon equ 00h
    52  0000                     pcl equ 0FF9h
    53  0000                     pclath equ 0FFAh
    54  0000                     pclatu equ 0FFBh
    55  0000                     plusw0 equ 0FEBh
    56  0000                     plusw1 equ 0FE3h
    57  0000                     plusw2 equ 0FDBh
    58  0000                     postdec0 equ 0FEDh
    59  0000                     postdec1 equ 0FE5h
    60  0000                     postdec2 equ 0FDDh
    61  0000                     postinc0 equ 0FEEh
    62  0000                     postinc1 equ 0FE6h
    63  0000                     postinc2 equ 0FDEh
    64  0000                     preinc0 equ 0FECh
    65  0000                     preinc1 equ 0FE4h
    66  0000                     preinc2 equ 0FDCh
    67  0000                     prod equ 0FF3h
    68  0000                     prodh equ 0FF4h
    69  0000                     prodl equ 0FF3h
    70  0000                     status equ 0FD8h
    71  0000                     tablat equ 0FF5h
    72  0000                     tblptr equ 0FF6h
    73  0000                     tblptrh equ 0FF7h
    74  0000                     tblptrl equ 0FF6h
    75  0000                     tblptru equ 0FF8h
    76  0000                     tosl equ 0FFDh
    77  0000                     wreg equ 0FE8h
    78  0000                     
     2                           opt pagewidth 120
     3  0000                     byte0	macro	val
     4                           	(getbyte(val,0))
     5                           endm
     6  0000                     byte1	macro	val
     7                           	(getbyte(val,1))
     8                           endm
     9  0000                     byte2	macro	val
    10                           	(getbyte(val,2))
    11                           endm
    12  0000                     byte3	macro	val
    13                           	(getbyte(val,3))
    14                           endm
    15  0000                     byte4	macro	val
    16                           	(getbyte(val,4))
    17                           endm
    18  0000                     byte5	macro	val
    19                           	(getbyte(val,5))
    20                           endm
    21  0000                     byte6	macro	val
    22                           	(getbyte(val,6))
    23                           endm
    24  0000                     byte7	macro	val
    25                           	(getbyte(val,7))
    26                           endm
    27  0000                     getword	macro	val,pos
    28                           	(((val) >> (8 * pos)) and 0xffff)
    29                           endm
    30  0000                     word0	macro	val
    31                           	(getword(val,0))
    32                           endm
    33  0000                     word1	macro	val
    34                           	(getword(val,2))
    35                           endm
    36  0000                     word2	macro	val
    37                           	(getword(val,4))
    38                           endm
    39  0000                     word3	macro	val
    40                           	(getword(val,6))
    41                           endm
    42  0000                     gettword	macro	val,pos
    43                           	(((val) >> (8 * pos)) and 0xffffff)
    44                           endm
    45  0000                     tword0	macro	val
    46                           	(gettword(val,0))
    47                           endm
    48  0000                     tword1	macro	val
    49                           	(gettword(val,3))
    50                           endm
    51  0000                     tword2	macro	val
    52                           	(gettword(val,6))
    53                           endm
    54  0000                     getdword	macro	val,pos
    55                           	(((val) >> (8 * pos)) and 0xffffffff)
    56                           endm
    57  0000                     dword0	macro	val
    58                           	(getdword(val,0))
    59                           endm
    60  0000                     dword1	macro	val
    61                           	(getdword(val,4))
    62                           endm
    63  0000                     clrc   macro
    64                           	bcf	status,0
    65                           endm
    66  0000                     setc   macro
    67                           	bsf	status,0
    68                           endm
    69  0000                     clrz   macro
    70                           	bcf	status,2
    71                           endm
    72  0000                     setz   macro
    73                           	bsf	status,2
    74                           endm
    75  0000                     skipnz macro
    76                           	btfsc	status,2
    77                           endm
    78  0000                     skipz  macro
    79                           	btfss	status,2
    80                           endm
    81  0000                     skipnc macro
    82                           	btfsc	status,0
    83                           endm
    84  0000                     skipc  macro
    85                           	btfss	status,0
    86                           endm
    87  0000                     pushw macro
    88                           	movwf postinc1
    89                           endm
    90  0000                     pushf macro arg1
    91                           	movff arg1, postinc1
    92                           endm
    93  0000                     popw macro
    94                           	movf postdec1,f
    95                           	movf indf1,w
    96                           endm
    97  0000                     popf macro arg1
    98                           	movf postdec1,f
    99                           	movff indf1,arg1
   100                           endm
   101  0000                     popfc macro arg1
   102                           	movff plusw1,arg1
   103                           	decfsz fsr1,f
   104                           endm
   105  0000                     	global	__ramtop
   106                           	global	__accesstop
   107                           # 54 "C:\Program Files (x86)\Microchip\xc8\v2.00\pic\include\pic18f2550.h"
   108                           UFRM equ 0F66h ;# 
   109  0000                     # 61 "C:\Program Files (x86)\Microchip\xc8\v2.00\pic\include\pic18f2550.h"
   110                           UFRML equ 0F66h ;# 
   111  0000                     # 139 "C:\Program Files (x86)\Microchip\xc8\v2.00\pic\include\pic18f2550.h"
   112                           UFRMH equ 0F67h ;# 
   113  0000                     # 179 "C:\Program Files (x86)\Microchip\xc8\v2.00\pic\include\pic18f2550.h"
   114                           UIR equ 0F68h ;# 
   115  0000                     # 235 "C:\Program Files (x86)\Microchip\xc8\v2.00\pic\include\pic18f2550.h"
   116                           UIE equ 0F69h ;# 
   117  0000                     # 291 "C:\Program Files (x86)\Microchip\xc8\v2.00\pic\include\pic18f2550.h"
   118                           UEIR equ 0F6Ah ;# 
   119  0000                     # 342 "C:\Program Files (x86)\Microchip\xc8\v2.00\pic\include\pic18f2550.h"
   120                           UEIE equ 0F6Bh ;# 
   121  0000                     # 393 "C:\Program Files (x86)\Microchip\xc8\v2.00\pic\include\pic18f2550.h"
   122                           USTAT equ 0F6Ch ;# 
   123  0000                     # 453 "C:\Program Files (x86)\Microchip\xc8\v2.00\pic\include\pic18f2550.h"
   124                           UCON equ 0F6Dh ;# 
   125  0000                     # 504 "C:\Program Files (x86)\Microchip\xc8\v2.00\pic\include\pic18f2550.h"
   126                           UADDR equ 0F6Eh ;# 
   127  0000                     # 568 "C:\Program Files (x86)\Microchip\xc8\v2.00\pic\include\pic18f2550.h"
   128                           UCFG equ 0F6Fh ;# 
   129  0000                     # 647 "C:\Program Files (x86)\Microchip\xc8\v2.00\pic\include\pic18f2550.h"
   130                           UEP0 equ 0F70h ;# 
   131  0000                     # 755 "C:\Program Files (x86)\Microchip\xc8\v2.00\pic\include\pic18f2550.h"
   132                           UEP1 equ 0F71h ;# 
   133  0000                     # 863 "C:\Program Files (x86)\Microchip\xc8\v2.00\pic\include\pic18f2550.h"
   134                           UEP2 equ 0F72h ;# 
   135  0000                     # 971 "C:\Program Files (x86)\Microchip\xc8\v2.00\pic\include\pic18f2550.h"
   136                           UEP3 equ 0F73h ;# 
   137  0000                     # 1079 "C:\Program Files (x86)\Microchip\xc8\v2.00\pic\include\pic18f2550.h"
   138                           UEP4 equ 0F74h ;# 
   139  0000                     # 1187 "C:\Program Files (x86)\Microchip\xc8\v2.00\pic\include\pic18f2550.h"
   140                           UEP5 equ 0F75h ;# 
   141  0000                     # 1295 "C:\Program Files (x86)\Microchip\xc8\v2.00\pic\include\pic18f2550.h"
   142                           UEP6 equ 0F76h ;# 
   143  0000                     # 1403 "C:\Program Files (x86)\Microchip\xc8\v2.00\pic\include\pic18f2550.h"
   144                           UEP7 equ 0F77h ;# 
   145  0000                     # 1511 "C:\Program Files (x86)\Microchip\xc8\v2.00\pic\include\pic18f2550.h"
   146                           UEP8 equ 0F78h ;# 
   147  0000                     # 1587 "C:\Program Files (x86)\Microchip\xc8\v2.00\pic\include\pic18f2550.h"
   148                           UEP9 equ 0F79h ;# 
   149  0000                     # 1663 "C:\Program Files (x86)\Microchip\xc8\v2.00\pic\include\pic18f2550.h"
   150                           UEP10 equ 0F7Ah ;# 
   151  0000                     # 1739 "C:\Program Files (x86)\Microchip\xc8\v2.00\pic\include\pic18f2550.h"
   152                           UEP11 equ 0F7Bh ;# 
   153  0000                     # 1815 "C:\Program Files (x86)\Microchip\xc8\v2.00\pic\include\pic18f2550.h"
   154                           UEP12 equ 0F7Ch ;# 
   155  0000                     # 1891 "C:\Program Files (x86)\Microchip\xc8\v2.00\pic\include\pic18f2550.h"
   156                           UEP13 equ 0F7Dh ;# 
   157  0000                     # 1967 "C:\Program Files (x86)\Microchip\xc8\v2.00\pic\include\pic18f2550.h"
   158                           UEP14 equ 0F7Eh ;# 
   159  0000                     # 2043 "C:\Program Files (x86)\Microchip\xc8\v2.00\pic\include\pic18f2550.h"
   160                           UEP15 equ 0F7Fh ;# 
   161  0000                     # 2119 "C:\Program Files (x86)\Microchip\xc8\v2.00\pic\include\pic18f2550.h"
   162                           PORTA equ 0F80h ;# 
   163  0000                     # 2258 "C:\Program Files (x86)\Microchip\xc8\v2.00\pic\include\pic18f2550.h"
   164                           PORTB equ 0F81h ;# 
   165  0000                     # 2368 "C:\Program Files (x86)\Microchip\xc8\v2.00\pic\include\pic18f2550.h"
   166                           PORTC equ 0F82h ;# 
   167  0000                     # 2510 "C:\Program Files (x86)\Microchip\xc8\v2.00\pic\include\pic18f2550.h"
   168                           PORTE equ 0F84h ;# 
   169  0000                     # 2549 "C:\Program Files (x86)\Microchip\xc8\v2.00\pic\include\pic18f2550.h"
   170                           LATA equ 0F89h ;# 
   171  0000                     # 2649 "C:\Program Files (x86)\Microchip\xc8\v2.00\pic\include\pic18f2550.h"
   172                           LATB equ 0F8Ah ;# 
   173  0000                     # 2761 "C:\Program Files (x86)\Microchip\xc8\v2.00\pic\include\pic18f2550.h"
   174                           LATC equ 0F8Bh ;# 
   175  0000                     # 2839 "C:\Program Files (x86)\Microchip\xc8\v2.00\pic\include\pic18f2550.h"
   176                           TRISA equ 0F92h ;# 
   177  0000                     # 2844 "C:\Program Files (x86)\Microchip\xc8\v2.00\pic\include\pic18f2550.h"
   178                           DDRA equ 0F92h ;# 
   179  0000                     # 3037 "C:\Program Files (x86)\Microchip\xc8\v2.00\pic\include\pic18f2550.h"
   180                           TRISB equ 0F93h ;# 
   181  0000                     # 3042 "C:\Program Files (x86)\Microchip\xc8\v2.00\pic\include\pic18f2550.h"
   182                           DDRB equ 0F93h ;# 
   183  0000                     # 3259 "C:\Program Files (x86)\Microchip\xc8\v2.00\pic\include\pic18f2550.h"
   184                           TRISC equ 0F94h ;# 
   185  0000                     # 3264 "C:\Program Files (x86)\Microchip\xc8\v2.00\pic\include\pic18f2550.h"
   186                           DDRC equ 0F94h ;# 
   187  0000                     # 3413 "C:\Program Files (x86)\Microchip\xc8\v2.00\pic\include\pic18f2550.h"
   188                           OSCTUNE equ 0F9Bh ;# 
   189  0000                     # 3472 "C:\Program Files (x86)\Microchip\xc8\v2.00\pic\include\pic18f2550.h"
   190                           PIE1 equ 0F9Dh ;# 
   191  0000                     # 3543 "C:\Program Files (x86)\Microchip\xc8\v2.00\pic\include\pic18f2550.h"
   192                           PIR1 equ 0F9Eh ;# 
   193  0000                     # 3614 "C:\Program Files (x86)\Microchip\xc8\v2.00\pic\include\pic18f2550.h"
   194                           IPR1 equ 0F9Fh ;# 
   195  0000                     # 3685 "C:\Program Files (x86)\Microchip\xc8\v2.00\pic\include\pic18f2550.h"
   196                           PIE2 equ 0FA0h ;# 
   197  0000                     # 3756 "C:\Program Files (x86)\Microchip\xc8\v2.00\pic\include\pic18f2550.h"
   198                           PIR2 equ 0FA1h ;# 
   199  0000                     # 3827 "C:\Program Files (x86)\Microchip\xc8\v2.00\pic\include\pic18f2550.h"
   200                           IPR2 equ 0FA2h ;# 
   201  0000                     # 3898 "C:\Program Files (x86)\Microchip\xc8\v2.00\pic\include\pic18f2550.h"
   202                           EECON1 equ 0FA6h ;# 
   203  0000                     # 3964 "C:\Program Files (x86)\Microchip\xc8\v2.00\pic\include\pic18f2550.h"
   204                           EECON2 equ 0FA7h ;# 
   205  0000                     # 3971 "C:\Program Files (x86)\Microchip\xc8\v2.00\pic\include\pic18f2550.h"
   206                           EEDATA equ 0FA8h ;# 
   207  0000                     # 3978 "C:\Program Files (x86)\Microchip\xc8\v2.00\pic\include\pic18f2550.h"
   208                           EEADR equ 0FA9h ;# 
   209  0000                     # 3985 "C:\Program Files (x86)\Microchip\xc8\v2.00\pic\include\pic18f2550.h"
   210                           RCSTA equ 0FABh ;# 
   211  0000                     # 3990 "C:\Program Files (x86)\Microchip\xc8\v2.00\pic\include\pic18f2550.h"
   212                           RCSTA1 equ 0FABh ;# 
   213  0000                     # 4195 "C:\Program Files (x86)\Microchip\xc8\v2.00\pic\include\pic18f2550.h"
   214                           TXSTA equ 0FACh ;# 
   215  0000                     # 4200 "C:\Program Files (x86)\Microchip\xc8\v2.00\pic\include\pic18f2550.h"
   216                           TXSTA1 equ 0FACh ;# 
   217  0000                     # 4451 "C:\Program Files (x86)\Microchip\xc8\v2.00\pic\include\pic18f2550.h"
   218                           TXREG equ 0FADh ;# 
   219  0000                     # 4456 "C:\Program Files (x86)\Microchip\xc8\v2.00\pic\include\pic18f2550.h"
   220                           TXREG1 equ 0FADh ;# 
   221  0000                     # 4463 "C:\Program Files (x86)\Microchip\xc8\v2.00\pic\include\pic18f2550.h"
   222                           RCREG equ 0FAEh ;# 
   223  0000                     # 4468 "C:\Program Files (x86)\Microchip\xc8\v2.00\pic\include\pic18f2550.h"
   224                           RCREG1 equ 0FAEh ;# 
   225  0000                     # 4475 "C:\Program Files (x86)\Microchip\xc8\v2.00\pic\include\pic18f2550.h"
   226                           SPBRG equ 0FAFh ;# 
   227  0000                     # 4480 "C:\Program Files (x86)\Microchip\xc8\v2.00\pic\include\pic18f2550.h"
   228                           SPBRG1 equ 0FAFh ;# 
   229  0000                     # 4487 "C:\Program Files (x86)\Microchip\xc8\v2.00\pic\include\pic18f2550.h"
   230                           SPBRGH equ 0FB0h ;# 
   231  0000                     # 4494 "C:\Program Files (x86)\Microchip\xc8\v2.00\pic\include\pic18f2550.h"
   232                           T3CON equ 0FB1h ;# 
   233  0000                     # 4615 "C:\Program Files (x86)\Microchip\xc8\v2.00\pic\include\pic18f2550.h"
   234                           TMR3 equ 0FB2h ;# 
   235  0000                     # 4622 "C:\Program Files (x86)\Microchip\xc8\v2.00\pic\include\pic18f2550.h"
   236                           TMR3L equ 0FB2h ;# 
   237  0000                     # 4629 "C:\Program Files (x86)\Microchip\xc8\v2.00\pic\include\pic18f2550.h"
   238                           TMR3H equ 0FB3h ;# 
   239  0000                     # 4636 "C:\Program Files (x86)\Microchip\xc8\v2.00\pic\include\pic18f2550.h"
   240                           CMCON equ 0FB4h ;# 
   241  0000                     # 4726 "C:\Program Files (x86)\Microchip\xc8\v2.00\pic\include\pic18f2550.h"
   242                           CVRCON equ 0FB5h ;# 
   243  0000                     # 4811 "C:\Program Files (x86)\Microchip\xc8\v2.00\pic\include\pic18f2550.h"
   244                           ECCP1AS equ 0FB6h ;# 
   245  0000                     # 4816 "C:\Program Files (x86)\Microchip\xc8\v2.00\pic\include\pic18f2550.h"
   246                           CCP1AS equ 0FB6h ;# 
   247  0000                     # 4941 "C:\Program Files (x86)\Microchip\xc8\v2.00\pic\include\pic18f2550.h"
   248                           ECCP1DEL equ 0FB7h ;# 
   249  0000                     # 4946 "C:\Program Files (x86)\Microchip\xc8\v2.00\pic\include\pic18f2550.h"
   250                           CCP1DEL equ 0FB7h ;# 
   251  0000                     # 4981 "C:\Program Files (x86)\Microchip\xc8\v2.00\pic\include\pic18f2550.h"
   252                           BAUDCON equ 0FB8h ;# 
   253  0000                     # 4986 "C:\Program Files (x86)\Microchip\xc8\v2.00\pic\include\pic18f2550.h"
   254                           BAUDCTL equ 0FB8h ;# 
   255  0000                     # 5161 "C:\Program Files (x86)\Microchip\xc8\v2.00\pic\include\pic18f2550.h"
   256                           CCP2CON equ 0FBAh ;# 
   257  0000                     # 5225 "C:\Program Files (x86)\Microchip\xc8\v2.00\pic\include\pic18f2550.h"
   258                           CCPR2 equ 0FBBh ;# 
   259  0000                     # 5232 "C:\Program Files (x86)\Microchip\xc8\v2.00\pic\include\pic18f2550.h"
   260                           CCPR2L equ 0FBBh ;# 
   261  0000                     # 5239 "C:\Program Files (x86)\Microchip\xc8\v2.00\pic\include\pic18f2550.h"
   262                           CCPR2H equ 0FBCh ;# 
   263  0000                     # 5246 "C:\Program Files (x86)\Microchip\xc8\v2.00\pic\include\pic18f2550.h"
   264                           CCP1CON equ 0FBDh ;# 
   265  0000                     # 5310 "C:\Program Files (x86)\Microchip\xc8\v2.00\pic\include\pic18f2550.h"
   266                           CCPR1 equ 0FBEh ;# 
   267  0000                     # 5317 "C:\Program Files (x86)\Microchip\xc8\v2.00\pic\include\pic18f2550.h"
   268                           CCPR1L equ 0FBEh ;# 
   269  0000                     # 5324 "C:\Program Files (x86)\Microchip\xc8\v2.00\pic\include\pic18f2550.h"
   270                           CCPR1H equ 0FBFh ;# 
   271  0000                     # 5331 "C:\Program Files (x86)\Microchip\xc8\v2.00\pic\include\pic18f2550.h"
   272                           ADCON2 equ 0FC0h ;# 
   273  0000                     # 5402 "C:\Program Files (x86)\Microchip\xc8\v2.00\pic\include\pic18f2550.h"
   274                           ADCON1 equ 0FC1h ;# 
   275  0000                     # 5487 "C:\Program Files (x86)\Microchip\xc8\v2.00\pic\include\pic18f2550.h"
   276                           ADCON0 equ 0FC2h ;# 
   277  0000                     # 5606 "C:\Program Files (x86)\Microchip\xc8\v2.00\pic\include\pic18f2550.h"
   278                           ADRES equ 0FC3h ;# 
   279  0000                     # 5613 "C:\Program Files (x86)\Microchip\xc8\v2.00\pic\include\pic18f2550.h"
   280                           ADRESL equ 0FC3h ;# 
   281  0000                     # 5620 "C:\Program Files (x86)\Microchip\xc8\v2.00\pic\include\pic18f2550.h"
   282                           ADRESH equ 0FC4h ;# 
   283  0000                     # 5627 "C:\Program Files (x86)\Microchip\xc8\v2.00\pic\include\pic18f2550.h"
   284                           SSPCON2 equ 0FC5h ;# 
   285  0000                     # 5689 "C:\Program Files (x86)\Microchip\xc8\v2.00\pic\include\pic18f2550.h"
   286                           SSPCON1 equ 0FC6h ;# 
   287  0000                     # 5759 "C:\Program Files (x86)\Microchip\xc8\v2.00\pic\include\pic18f2550.h"
   288                           SSPSTAT equ 0FC7h ;# 
   289  0000                     # 6007 "C:\Program Files (x86)\Microchip\xc8\v2.00\pic\include\pic18f2550.h"
   290                           SSPADD equ 0FC8h ;# 
   291  0000                     # 6014 "C:\Program Files (x86)\Microchip\xc8\v2.00\pic\include\pic18f2550.h"
   292                           SSPBUF equ 0FC9h ;# 
   293  0000                     # 6021 "C:\Program Files (x86)\Microchip\xc8\v2.00\pic\include\pic18f2550.h"
   294                           T2CON equ 0FCAh ;# 
   295  0000                     # 6119 "C:\Program Files (x86)\Microchip\xc8\v2.00\pic\include\pic18f2550.h"
   296                           PR2 equ 0FCBh ;# 
   297  0000                     # 6124 "C:\Program Files (x86)\Microchip\xc8\v2.00\pic\include\pic18f2550.h"
   298                           MEMCON equ 0FCBh ;# 
   299  0000                     # 6229 "C:\Program Files (x86)\Microchip\xc8\v2.00\pic\include\pic18f2550.h"
   300                           TMR2 equ 0FCCh ;# 
   301  0000                     # 6236 "C:\Program Files (x86)\Microchip\xc8\v2.00\pic\include\pic18f2550.h"
   302                           T1CON equ 0FCDh ;# 
   303  0000                     # 6339 "C:\Program Files (x86)\Microchip\xc8\v2.00\pic\include\pic18f2550.h"
   304                           TMR1 equ 0FCEh ;# 
   305  0000                     # 6346 "C:\Program Files (x86)\Microchip\xc8\v2.00\pic\include\pic18f2550.h"
   306                           TMR1L equ 0FCEh ;# 
   307  0000                     # 6353 "C:\Program Files (x86)\Microchip\xc8\v2.00\pic\include\pic18f2550.h"
   308                           TMR1H equ 0FCFh ;# 
   309  0000                     # 6360 "C:\Program Files (x86)\Microchip\xc8\v2.00\pic\include\pic18f2550.h"
   310                           RCON equ 0FD0h ;# 
   311  0000                     # 6509 "C:\Program Files (x86)\Microchip\xc8\v2.00\pic\include\pic18f2550.h"
   312                           WDTCON equ 0FD1h ;# 
   313  0000                     # 6537 "C:\Program Files (x86)\Microchip\xc8\v2.00\pic\include\pic18f2550.h"
   314                           HLVDCON equ 0FD2h ;# 
   315  0000                     # 6542 "C:\Program Files (x86)\Microchip\xc8\v2.00\pic\include\pic18f2550.h"
   316                           LVDCON equ 0FD2h ;# 
   317  0000                     # 6807 "C:\Program Files (x86)\Microchip\xc8\v2.00\pic\include\pic18f2550.h"
   318                           OSCCON equ 0FD3h ;# 
   319  0000                     # 6890 "C:\Program Files (x86)\Microchip\xc8\v2.00\pic\include\pic18f2550.h"
   320                           T0CON equ 0FD5h ;# 
   321  0000                     # 6960 "C:\Program Files (x86)\Microchip\xc8\v2.00\pic\include\pic18f2550.h"
   322                           TMR0 equ 0FD6h ;# 
   323  0000                     # 6967 "C:\Program Files (x86)\Microchip\xc8\v2.00\pic\include\pic18f2550.h"
   324                           TMR0L equ 0FD6h ;# 
   325  0000                     # 6974 "C:\Program Files (x86)\Microchip\xc8\v2.00\pic\include\pic18f2550.h"
   326                           TMR0H equ 0FD7h ;# 
   327  0000                     # 6981 "C:\Program Files (x86)\Microchip\xc8\v2.00\pic\include\pic18f2550.h"
   328                           STATUS equ 0FD8h ;# 
   329  0000                     # 7052 "C:\Program Files (x86)\Microchip\xc8\v2.00\pic\include\pic18f2550.h"
   330                           FSR2 equ 0FD9h ;# 
   331  0000                     # 7059 "C:\Program Files (x86)\Microchip\xc8\v2.00\pic\include\pic18f2550.h"
   332                           FSR2L equ 0FD9h ;# 
   333  0000                     # 7066 "C:\Program Files (x86)\Microchip\xc8\v2.00\pic\include\pic18f2550.h"
   334                           FSR2H equ 0FDAh ;# 
   335  0000                     # 7073 "C:\Program Files (x86)\Microchip\xc8\v2.00\pic\include\pic18f2550.h"
   336                           PLUSW2 equ 0FDBh ;# 
   337  0000                     # 7080 "C:\Program Files (x86)\Microchip\xc8\v2.00\pic\include\pic18f2550.h"
   338                           PREINC2 equ 0FDCh ;# 
   339  0000                     # 7087 "C:\Program Files (x86)\Microchip\xc8\v2.00\pic\include\pic18f2550.h"
   340                           POSTDEC2 equ 0FDDh ;# 
   341  0000                     # 7094 "C:\Program Files (x86)\Microchip\xc8\v2.00\pic\include\pic18f2550.h"
   342                           POSTINC2 equ 0FDEh ;# 
   343  0000                     # 7101 "C:\Program Files (x86)\Microchip\xc8\v2.00\pic\include\pic18f2550.h"
   344                           INDF2 equ 0FDFh ;# 
   345  0000                     # 7108 "C:\Program Files (x86)\Microchip\xc8\v2.00\pic\include\pic18f2550.h"
   346                           BSR equ 0FE0h ;# 
   347  0000                     # 7115 "C:\Program Files (x86)\Microchip\xc8\v2.00\pic\include\pic18f2550.h"
   348                           FSR1 equ 0FE1h ;# 
   349  0000                     # 7122 "C:\Program Files (x86)\Microchip\xc8\v2.00\pic\include\pic18f2550.h"
   350                           FSR1L equ 0FE1h ;# 
   351  0000                     # 7129 "C:\Program Files (x86)\Microchip\xc8\v2.00\pic\include\pic18f2550.h"
   352                           FSR1H equ 0FE2h ;# 
   353  0000                     # 7136 "C:\Program Files (x86)\Microchip\xc8\v2.00\pic\include\pic18f2550.h"
   354                           PLUSW1 equ 0FE3h ;# 
   355  0000                     # 7143 "C:\Program Files (x86)\Microchip\xc8\v2.00\pic\include\pic18f2550.h"
   356                           PREINC1 equ 0FE4h ;# 
   357  0000                     # 7150 "C:\Program Files (x86)\Microchip\xc8\v2.00\pic\include\pic18f2550.h"
   358                           POSTDEC1 equ 0FE5h ;# 
   359  0000                     # 7157 "C:\Program Files (x86)\Microchip\xc8\v2.00\pic\include\pic18f2550.h"
   360                           POSTINC1 equ 0FE6h ;# 
   361  0000                     # 7164 "C:\Program Files (x86)\Microchip\xc8\v2.00\pic\include\pic18f2550.h"
   362                           INDF1 equ 0FE7h ;# 
   363  0000                     # 7171 "C:\Program Files (x86)\Microchip\xc8\v2.00\pic\include\pic18f2550.h"
   364                           WREG equ 0FE8h ;# 
   365  0000                     # 7178 "C:\Program Files (x86)\Microchip\xc8\v2.00\pic\include\pic18f2550.h"
   366                           FSR0 equ 0FE9h ;# 
   367  0000                     # 7185 "C:\Program Files (x86)\Microchip\xc8\v2.00\pic\include\pic18f2550.h"
   368                           FSR0L equ 0FE9h ;# 
   369  0000                     # 7192 "C:\Program Files (x86)\Microchip\xc8\v2.00\pic\include\pic18f2550.h"
   370                           FSR0H equ 0FEAh ;# 
   371  0000                     # 7199 "C:\Program Files (x86)\Microchip\xc8\v2.00\pic\include\pic18f2550.h"
   372                           PLUSW0 equ 0FEBh ;# 
   373  0000                     # 7206 "C:\Program Files (x86)\Microchip\xc8\v2.00\pic\include\pic18f2550.h"
   374                           PREINC0 equ 0FECh ;# 
   375  0000                     # 7213 "C:\Program Files (x86)\Microchip\xc8\v2.00\pic\include\pic18f2550.h"
   376                           POSTDEC0 equ 0FEDh ;# 
   377  0000                     # 7220 "C:\Program Files (x86)\Microchip\xc8\v2.00\pic\include\pic18f2550.h"
   378                           POSTINC0 equ 0FEEh ;# 
   379  0000                     # 7227 "C:\Program Files (x86)\Microchip\xc8\v2.00\pic\include\pic18f2550.h"
   380                           INDF0 equ 0FEFh ;# 
   381  0000                     # 7234 "C:\Program Files (x86)\Microchip\xc8\v2.00\pic\include\pic18f2550.h"
   382                           INTCON3 equ 0FF0h ;# 
   383  0000                     # 7326 "C:\Program Files (x86)\Microchip\xc8\v2.00\pic\include\pic18f2550.h"
   384                           INTCON2 equ 0FF1h ;# 
   385  0000                     # 7403 "C:\Program Files (x86)\Microchip\xc8\v2.00\pic\include\pic18f2550.h"
   386                           INTCON equ 0FF2h ;# 
   387  0000                     # 7520 "C:\Program Files (x86)\Microchip\xc8\v2.00\pic\include\pic18f2550.h"
   388                           PROD equ 0FF3h ;# 
   389  0000                     # 7527 "C:\Program Files (x86)\Microchip\xc8\v2.00\pic\include\pic18f2550.h"
   390                           PRODL equ 0FF3h ;# 
   391  0000                     # 7534 "C:\Program Files (x86)\Microchip\xc8\v2.00\pic\include\pic18f2550.h"
   392                           PRODH equ 0FF4h ;# 
   393  0000                     # 7541 "C:\Program Files (x86)\Microchip\xc8\v2.00\pic\include\pic18f2550.h"
   394                           TABLAT equ 0FF5h ;# 
   395  0000                     # 7550 "C:\Program Files (x86)\Microchip\xc8\v2.00\pic\include\pic18f2550.h"
   396                           TBLPTR equ 0FF6h ;# 
   397  0000                     # 7557 "C:\Program Files (x86)\Microchip\xc8\v2.00\pic\include\pic18f2550.h"
   398                           TBLPTRL equ 0FF6h ;# 
   399  0000                     # 7564 "C:\Program Files (x86)\Microchip\xc8\v2.00\pic\include\pic18f2550.h"
   400                           TBLPTRH equ 0FF7h ;# 
   401  0000                     # 7571 "C:\Program Files (x86)\Microchip\xc8\v2.00\pic\include\pic18f2550.h"
   402                           TBLPTRU equ 0FF8h ;# 
   403  0000                     # 7580 "C:\Program Files (x86)\Microchip\xc8\v2.00\pic\include\pic18f2550.h"
   404                           PCLAT equ 0FF9h ;# 
   405  0000                     # 7587 "C:\Program Files (x86)\Microchip\xc8\v2.00\pic\include\pic18f2550.h"
   406                           PC equ 0FF9h ;# 
   407  0000                     # 7594 "C:\Program Files (x86)\Microchip\xc8\v2.00\pic\include\pic18f2550.h"
   408                           PCL equ 0FF9h ;# 
   409  0000                     # 7601 "C:\Program Files (x86)\Microchip\xc8\v2.00\pic\include\pic18f2550.h"
   410                           PCLATH equ 0FFAh ;# 
   411  0000                     # 7608 "C:\Program Files (x86)\Microchip\xc8\v2.00\pic\include\pic18f2550.h"
   412                           PCLATU equ 0FFBh ;# 
   413  0000                     # 7615 "C:\Program Files (x86)\Microchip\xc8\v2.00\pic\include\pic18f2550.h"
   414                           STKPTR equ 0FFCh ;# 
   415  0000                     # 7691 "C:\Program Files (x86)\Microchip\xc8\v2.00\pic\include\pic18f2550.h"
   416                           TOS equ 0FFDh ;# 
   417  0000                     # 7698 "C:\Program Files (x86)\Microchip\xc8\v2.00\pic\include\pic18f2550.h"
   418                           TOSL equ 0FFDh ;# 
   419  0000                     # 7705 "C:\Program Files (x86)\Microchip\xc8\v2.00\pic\include\pic18f2550.h"
   420                           TOSH equ 0FFEh ;# 
   421  0000                     # 7712 "C:\Program Files (x86)\Microchip\xc8\v2.00\pic\include\pic18f2550.h"
   422                           TOSU equ 0FFFh ;# 
   423  0000                     # 54 "C:\Program Files (x86)\Microchip\xc8\v2.00\pic\include\pic18f2550.h"
   424                           UFRM equ 0F66h ;# 
   425  0000                     # 61 "C:\Program Files (x86)\Microchip\xc8\v2.00\pic\include\pic18f2550.h"
   426                           UFRML equ 0F66h ;# 
   427  0000                     # 139 "C:\Program Files (x86)\Microchip\xc8\v2.00\pic\include\pic18f2550.h"
   428                           UFRMH equ 0F67h ;# 
   429  0000                     # 179 "C:\Program Files (x86)\Microchip\xc8\v2.00\pic\include\pic18f2550.h"
   430                           UIR equ 0F68h ;# 
   431  0000                     # 235 "C:\Program Files (x86)\Microchip\xc8\v2.00\pic\include\pic18f2550.h"
   432                           UIE equ 0F69h ;# 
   433  0000                     # 291 "C:\Program Files (x86)\Microchip\xc8\v2.00\pic\include\pic18f2550.h"
   434                           UEIR equ 0F6Ah ;# 
   435  0000                     # 342 "C:\Program Files (x86)\Microchip\xc8\v2.00\pic\include\pic18f2550.h"
   436                           UEIE equ 0F6Bh ;# 
   437  0000                     # 393 "C:\Program Files (x86)\Microchip\xc8\v2.00\pic\include\pic18f2550.h"
   438                           USTAT equ 0F6Ch ;# 
   439  0000                     # 453 "C:\Program Files (x86)\Microchip\xc8\v2.00\pic\include\pic18f2550.h"
   440                           UCON equ 0F6Dh ;# 
   441  0000                     # 504 "C:\Program Files (x86)\Microchip\xc8\v2.00\pic\include\pic18f2550.h"
   442                           UADDR equ 0F6Eh ;# 
   443  0000                     # 568 "C:\Program Files (x86)\Microchip\xc8\v2.00\pic\include\pic18f2550.h"
   444                           UCFG equ 0F6Fh ;# 
   445  0000                     # 647 "C:\Program Files (x86)\Microchip\xc8\v2.00\pic\include\pic18f2550.h"
   446                           UEP0 equ 0F70h ;# 
   447  0000                     # 755 "C:\Program Files (x86)\Microchip\xc8\v2.00\pic\include\pic18f2550.h"
   448                           UEP1 equ 0F71h ;# 
   449  0000                     # 863 "C:\Program Files (x86)\Microchip\xc8\v2.00\pic\include\pic18f2550.h"
   450                           UEP2 equ 0F72h ;# 
   451  0000                     # 971 "C:\Program Files (x86)\Microchip\xc8\v2.00\pic\include\pic18f2550.h"
   452                           UEP3 equ 0F73h ;# 
   453  0000                     # 1079 "C:\Program Files (x86)\Microchip\xc8\v2.00\pic\include\pic18f2550.h"
   454                           UEP4 equ 0F74h ;# 
   455  0000                     # 1187 "C:\Program Files (x86)\Microchip\xc8\v2.00\pic\include\pic18f2550.h"
   456                           UEP5 equ 0F75h ;# 
   457  0000                     # 1295 "C:\Program Files (x86)\Microchip\xc8\v2.00\pic\include\pic18f2550.h"
   458                           UEP6 equ 0F76h ;# 
   459  0000                     # 1403 "C:\Program Files (x86)\Microchip\xc8\v2.00\pic\include\pic18f2550.h"
   460                           UEP7 equ 0F77h ;# 
   461  0000                     # 1511 "C:\Program Files (x86)\Microchip\xc8\v2.00\pic\include\pic18f2550.h"
   462                           UEP8 equ 0F78h ;# 
   463  0000                     # 1587 "C:\Program Files (x86)\Microchip\xc8\v2.00\pic\include\pic18f2550.h"
   464                           UEP9 equ 0F79h ;# 
   465  0000                     # 1663 "C:\Program Files (x86)\Microchip\xc8\v2.00\pic\include\pic18f2550.h"
   466                           UEP10 equ 0F7Ah ;# 
   467  0000                     # 1739 "C:\Program Files (x86)\Microchip\xc8\v2.00\pic\include\pic18f2550.h"
   468                           UEP11 equ 0F7Bh ;# 
   469  0000                     # 1815 "C:\Program Files (x86)\Microchip\xc8\v2.00\pic\include\pic18f2550.h"
   470                           UEP12 equ 0F7Ch ;# 
   471  0000                     # 1891 "C:\Program Files (x86)\Microchip\xc8\v2.00\pic\include\pic18f2550.h"
   472                           UEP13 equ 0F7Dh ;# 
   473  0000                     # 1967 "C:\Program Files (x86)\Microchip\xc8\v2.00\pic\include\pic18f2550.h"
   474                           UEP14 equ 0F7Eh ;# 
   475  0000                     # 2043 "C:\Program Files (x86)\Microchip\xc8\v2.00\pic\include\pic18f2550.h"
   476                           UEP15 equ 0F7Fh ;# 
   477  0000                     # 2119 "C:\Program Files (x86)\Microchip\xc8\v2.00\pic\include\pic18f2550.h"
   478                           PORTA equ 0F80h ;# 
   479  0000                     # 2258 "C:\Program Files (x86)\Microchip\xc8\v2.00\pic\include\pic18f2550.h"
   480                           PORTB equ 0F81h ;# 
   481  0000                     # 2368 "C:\Program Files (x86)\Microchip\xc8\v2.00\pic\include\pic18f2550.h"
   482                           PORTC equ 0F82h ;# 
   483  0000                     # 2510 "C:\Program Files (x86)\Microchip\xc8\v2.00\pic\include\pic18f2550.h"
   484                           PORTE equ 0F84h ;# 
   485  0000                     # 2549 "C:\Program Files (x86)\Microchip\xc8\v2.00\pic\include\pic18f2550.h"
   486                           LATA equ 0F89h ;# 
   487  0000                     # 2649 "C:\Program Files (x86)\Microchip\xc8\v2.00\pic\include\pic18f2550.h"
   488                           LATB equ 0F8Ah ;# 
   489  0000                     # 2761 "C:\Program Files (x86)\Microchip\xc8\v2.00\pic\include\pic18f2550.h"
   490                           LATC equ 0F8Bh ;# 
   491  0000                     # 2839 "C:\Program Files (x86)\Microchip\xc8\v2.00\pic\include\pic18f2550.h"
   492                           TRISA equ 0F92h ;# 
   493  0000                     # 2844 "C:\Program Files (x86)\Microchip\xc8\v2.00\pic\include\pic18f2550.h"
   494                           DDRA equ 0F92h ;# 
   495  0000                     # 3037 "C:\Program Files (x86)\Microchip\xc8\v2.00\pic\include\pic18f2550.h"
   496                           TRISB equ 0F93h ;# 
   497  0000                     # 3042 "C:\Program Files (x86)\Microchip\xc8\v2.00\pic\include\pic18f2550.h"
   498                           DDRB equ 0F93h ;# 
   499  0000                     # 3259 "C:\Program Files (x86)\Microchip\xc8\v2.00\pic\include\pic18f2550.h"
   500                           TRISC equ 0F94h ;# 
   501  0000                     # 3264 "C:\Program Files (x86)\Microchip\xc8\v2.00\pic\include\pic18f2550.h"
   502                           DDRC equ 0F94h ;# 
   503  0000                     # 3413 "C:\Program Files (x86)\Microchip\xc8\v2.00\pic\include\pic18f2550.h"
   504                           OSCTUNE equ 0F9Bh ;# 
   505  0000                     # 3472 "C:\Program Files (x86)\Microchip\xc8\v2.00\pic\include\pic18f2550.h"
   506                           PIE1 equ 0F9Dh ;# 
   507  0000                     # 3543 "C:\Program Files (x86)\Microchip\xc8\v2.00\pic\include\pic18f2550.h"
   508                           PIR1 equ 0F9Eh ;# 
   509  0000                     # 3614 "C:\Program Files (x86)\Microchip\xc8\v2.00\pic\include\pic18f2550.h"
   510                           IPR1 equ 0F9Fh ;# 
   511  0000                     # 3685 "C:\Program Files (x86)\Microchip\xc8\v2.00\pic\include\pic18f2550.h"
   512                           PIE2 equ 0FA0h ;# 
   513  0000                     # 3756 "C:\Program Files (x86)\Microchip\xc8\v2.00\pic\include\pic18f2550.h"
   514                           PIR2 equ 0FA1h ;# 
   515  0000                     # 3827 "C:\Program Files (x86)\Microchip\xc8\v2.00\pic\include\pic18f2550.h"
   516                           IPR2 equ 0FA2h ;# 
   517  0000                     # 3898 "C:\Program Files (x86)\Microchip\xc8\v2.00\pic\include\pic18f2550.h"
   518                           EECON1 equ 0FA6h ;# 
   519  0000                     # 3964 "C:\Program Files (x86)\Microchip\xc8\v2.00\pic\include\pic18f2550.h"
   520                           EECON2 equ 0FA7h ;# 
   521  0000                     # 3971 "C:\Program Files (x86)\Microchip\xc8\v2.00\pic\include\pic18f2550.h"
   522                           EEDATA equ 0FA8h ;# 
   523  0000                     # 3978 "C:\Program Files (x86)\Microchip\xc8\v2.00\pic\include\pic18f2550.h"
   524                           EEADR equ 0FA9h ;# 
   525  0000                     # 3985 "C:\Program Files (x86)\Microchip\xc8\v2.00\pic\include\pic18f2550.h"
   526                           RCSTA equ 0FABh ;# 
   527  0000                     # 3990 "C:\Program Files (x86)\Microchip\xc8\v2.00\pic\include\pic18f2550.h"
   528                           RCSTA1 equ 0FABh ;# 
   529  0000                     # 4195 "C:\Program Files (x86)\Microchip\xc8\v2.00\pic\include\pic18f2550.h"
   530                           TXSTA equ 0FACh ;# 
   531  0000                     # 4200 "C:\Program Files (x86)\Microchip\xc8\v2.00\pic\include\pic18f2550.h"
   532                           TXSTA1 equ 0FACh ;# 
   533  0000                     # 4451 "C:\Program Files (x86)\Microchip\xc8\v2.00\pic\include\pic18f2550.h"
   534                           TXREG equ 0FADh ;# 
   535  0000                     # 4456 "C:\Program Files (x86)\Microchip\xc8\v2.00\pic\include\pic18f2550.h"
   536                           TXREG1 equ 0FADh ;# 
   537  0000                     # 4463 "C:\Program Files (x86)\Microchip\xc8\v2.00\pic\include\pic18f2550.h"
   538                           RCREG equ 0FAEh ;# 
   539  0000                     # 4468 "C:\Program Files (x86)\Microchip\xc8\v2.00\pic\include\pic18f2550.h"
   540                           RCREG1 equ 0FAEh ;# 
   541  0000                     # 4475 "C:\Program Files (x86)\Microchip\xc8\v2.00\pic\include\pic18f2550.h"
   542                           SPBRG equ 0FAFh ;# 
   543  0000                     # 4480 "C:\Program Files (x86)\Microchip\xc8\v2.00\pic\include\pic18f2550.h"
   544                           SPBRG1 equ 0FAFh ;# 
   545  0000                     # 4487 "C:\Program Files (x86)\Microchip\xc8\v2.00\pic\include\pic18f2550.h"
   546                           SPBRGH equ 0FB0h ;# 
   547  0000                     # 4494 "C:\Program Files (x86)\Microchip\xc8\v2.00\pic\include\pic18f2550.h"
   548                           T3CON equ 0FB1h ;# 
   549  0000                     # 4615 "C:\Program Files (x86)\Microchip\xc8\v2.00\pic\include\pic18f2550.h"
   550                           TMR3 equ 0FB2h ;# 
   551  0000                     # 4622 "C:\Program Files (x86)\Microchip\xc8\v2.00\pic\include\pic18f2550.h"
   552                           TMR3L equ 0FB2h ;# 
   553  0000                     # 4629 "C:\Program Files (x86)\Microchip\xc8\v2.00\pic\include\pic18f2550.h"
   554                           TMR3H equ 0FB3h ;# 
   555  0000                     # 4636 "C:\Program Files (x86)\Microchip\xc8\v2.00\pic\include\pic18f2550.h"
   556                           CMCON equ 0FB4h ;# 
   557  0000                     # 4726 "C:\Program Files (x86)\Microchip\xc8\v2.00\pic\include\pic18f2550.h"
   558                           CVRCON equ 0FB5h ;# 
   559  0000                     # 4811 "C:\Program Files (x86)\Microchip\xc8\v2.00\pic\include\pic18f2550.h"
   560                           ECCP1AS equ 0FB6h ;# 
   561  0000                     # 4816 "C:\Program Files (x86)\Microchip\xc8\v2.00\pic\include\pic18f2550.h"
   562                           CCP1AS equ 0FB6h ;# 
   563  0000                     # 4941 "C:\Program Files (x86)\Microchip\xc8\v2.00\pic\include\pic18f2550.h"
   564                           ECCP1DEL equ 0FB7h ;# 
   565  0000                     # 4946 "C:\Program Files (x86)\Microchip\xc8\v2.00\pic\include\pic18f2550.h"
   566                           CCP1DEL equ 0FB7h ;# 
   567  0000                     # 4981 "C:\Program Files (x86)\Microchip\xc8\v2.00\pic\include\pic18f2550.h"
   568                           BAUDCON equ 0FB8h ;# 
   569  0000                     # 4986 "C:\Program Files (x86)\Microchip\xc8\v2.00\pic\include\pic18f2550.h"
   570                           BAUDCTL equ 0FB8h ;# 
   571  0000                     # 5161 "C:\Program Files (x86)\Microchip\xc8\v2.00\pic\include\pic18f2550.h"
   572                           CCP2CON equ 0FBAh ;# 
   573  0000                     # 5225 "C:\Program Files (x86)\Microchip\xc8\v2.00\pic\include\pic18f2550.h"
   574                           CCPR2 equ 0FBBh ;# 
   575  0000                     # 5232 "C:\Program Files (x86)\Microchip\xc8\v2.00\pic\include\pic18f2550.h"
   576                           CCPR2L equ 0FBBh ;# 
   577  0000                     # 5239 "C:\Program Files (x86)\Microchip\xc8\v2.00\pic\include\pic18f2550.h"
   578                           CCPR2H equ 0FBCh ;# 
   579  0000                     # 5246 "C:\Program Files (x86)\Microchip\xc8\v2.00\pic\include\pic18f2550.h"
   580                           CCP1CON equ 0FBDh ;# 
   581  0000                     # 5310 "C:\Program Files (x86)\Microchip\xc8\v2.00\pic\include\pic18f2550.h"
   582                           CCPR1 equ 0FBEh ;# 
   583  0000                     # 5317 "C:\Program Files (x86)\Microchip\xc8\v2.00\pic\include\pic18f2550.h"
   584                           CCPR1L equ 0FBEh ;# 
   585  0000                     # 5324 "C:\Program Files (x86)\Microchip\xc8\v2.00\pic\include\pic18f2550.h"
   586                           CCPR1H equ 0FBFh ;# 
   587  0000                     # 5331 "C:\Program Files (x86)\Microchip\xc8\v2.00\pic\include\pic18f2550.h"
   588                           ADCON2 equ 0FC0h ;# 
   589  0000                     # 5402 "C:\Program Files (x86)\Microchip\xc8\v2.00\pic\include\pic18f2550.h"
   590                           ADCON1 equ 0FC1h ;# 
   591  0000                     # 5487 "C:\Program Files (x86)\Microchip\xc8\v2.00\pic\include\pic18f2550.h"
   592                           ADCON0 equ 0FC2h ;# 
   593  0000                     # 5606 "C:\Program Files (x86)\Microchip\xc8\v2.00\pic\include\pic18f2550.h"
   594                           ADRES equ 0FC3h ;# 
   595  0000                     # 5613 "C:\Program Files (x86)\Microchip\xc8\v2.00\pic\include\pic18f2550.h"
   596                           ADRESL equ 0FC3h ;# 
   597  0000                     # 5620 "C:\Program Files (x86)\Microchip\xc8\v2.00\pic\include\pic18f2550.h"
   598                           ADRESH equ 0FC4h ;# 
   599  0000                     # 5627 "C:\Program Files (x86)\Microchip\xc8\v2.00\pic\include\pic18f2550.h"
   600                           SSPCON2 equ 0FC5h ;# 
   601  0000                     # 5689 "C:\Program Files (x86)\Microchip\xc8\v2.00\pic\include\pic18f2550.h"
   602                           SSPCON1 equ 0FC6h ;# 
   603  0000                     # 5759 "C:\Program Files (x86)\Microchip\xc8\v2.00\pic\include\pic18f2550.h"
   604                           SSPSTAT equ 0FC7h ;# 
   605  0000                     # 6007 "C:\Program Files (x86)\Microchip\xc8\v2.00\pic\include\pic18f2550.h"
   606                           SSPADD equ 0FC8h ;# 
   607  0000                     # 6014 "C:\Program Files (x86)\Microchip\xc8\v2.00\pic\include\pic18f2550.h"
   608                           SSPBUF equ 0FC9h ;# 
   609  0000                     # 6021 "C:\Program Files (x86)\Microchip\xc8\v2.00\pic\include\pic18f2550.h"
   610                           T2CON equ 0FCAh ;# 
   611  0000                     # 6119 "C:\Program Files (x86)\Microchip\xc8\v2.00\pic\include\pic18f2550.h"
   612                           PR2 equ 0FCBh ;# 
   613  0000                     # 6124 "C:\Program Files (x86)\Microchip\xc8\v2.00\pic\include\pic18f2550.h"
   614                           MEMCON equ 0FCBh ;# 
   615  0000                     # 6229 "C:\Program Files (x86)\Microchip\xc8\v2.00\pic\include\pic18f2550.h"
   616                           TMR2 equ 0FCCh ;# 
   617  0000                     # 6236 "C:\Program Files (x86)\Microchip\xc8\v2.00\pic\include\pic18f2550.h"
   618                           T1CON equ 0FCDh ;# 
   619  0000                     # 6339 "C:\Program Files (x86)\Microchip\xc8\v2.00\pic\include\pic18f2550.h"
   620                           TMR1 equ 0FCEh ;# 
   621  0000                     # 6346 "C:\Program Files (x86)\Microchip\xc8\v2.00\pic\include\pic18f2550.h"
   622                           TMR1L equ 0FCEh ;# 
   623  0000                     # 6353 "C:\Program Files (x86)\Microchip\xc8\v2.00\pic\include\pic18f2550.h"
   624                           TMR1H equ 0FCFh ;# 
   625  0000                     # 6360 "C:\Program Files (x86)\Microchip\xc8\v2.00\pic\include\pic18f2550.h"
   626                           RCON equ 0FD0h ;# 
   627  0000                     # 6509 "C:\Program Files (x86)\Microchip\xc8\v2.00\pic\include\pic18f2550.h"
   628                           WDTCON equ 0FD1h ;# 
   629  0000                     # 6537 "C:\Program Files (x86)\Microchip\xc8\v2.00\pic\include\pic18f2550.h"
   630                           HLVDCON equ 0FD2h ;# 
   631  0000                     # 6542 "C:\Program Files (x86)\Microchip\xc8\v2.00\pic\include\pic18f2550.h"
   632                           LVDCON equ 0FD2h ;# 
   633  0000                     # 6807 "C:\Program Files (x86)\Microchip\xc8\v2.00\pic\include\pic18f2550.h"
   634                           OSCCON equ 0FD3h ;# 
   635  0000                     # 6890 "C:\Program Files (x86)\Microchip\xc8\v2.00\pic\include\pic18f2550.h"
   636                           T0CON equ 0FD5h ;# 
   637  0000                     # 6960 "C:\Program Files (x86)\Microchip\xc8\v2.00\pic\include\pic18f2550.h"
   638                           TMR0 equ 0FD6h ;# 
   639  0000                     # 6967 "C:\Program Files (x86)\Microchip\xc8\v2.00\pic\include\pic18f2550.h"
   640                           TMR0L equ 0FD6h ;# 
   641  0000                     # 6974 "C:\Program Files (x86)\Microchip\xc8\v2.00\pic\include\pic18f2550.h"
   642                           TMR0H equ 0FD7h ;# 
   643  0000                     # 6981 "C:\Program Files (x86)\Microchip\xc8\v2.00\pic\include\pic18f2550.h"
   644                           STATUS equ 0FD8h ;# 
   645  0000                     # 7052 "C:\Program Files (x86)\Microchip\xc8\v2.00\pic\include\pic18f2550.h"
   646                           FSR2 equ 0FD9h ;# 
   647  0000                     # 7059 "C:\Program Files (x86)\Microchip\xc8\v2.00\pic\include\pic18f2550.h"
   648                           FSR2L equ 0FD9h ;# 
   649  0000                     # 7066 "C:\Program Files (x86)\Microchip\xc8\v2.00\pic\include\pic18f2550.h"
   650                           FSR2H equ 0FDAh ;# 
   651  0000                     # 7073 "C:\Program Files (x86)\Microchip\xc8\v2.00\pic\include\pic18f2550.h"
   652                           PLUSW2 equ 0FDBh ;# 
   653  0000                     # 7080 "C:\Program Files (x86)\Microchip\xc8\v2.00\pic\include\pic18f2550.h"
   654                           PREINC2 equ 0FDCh ;# 
   655  0000                     # 7087 "C:\Program Files (x86)\Microchip\xc8\v2.00\pic\include\pic18f2550.h"
   656                           POSTDEC2 equ 0FDDh ;# 
   657  0000                     # 7094 "C:\Program Files (x86)\Microchip\xc8\v2.00\pic\include\pic18f2550.h"
   658                           POSTINC2 equ 0FDEh ;# 
   659  0000                     # 7101 "C:\Program Files (x86)\Microchip\xc8\v2.00\pic\include\pic18f2550.h"
   660                           INDF2 equ 0FDFh ;# 
   661  0000                     # 7108 "C:\Program Files (x86)\Microchip\xc8\v2.00\pic\include\pic18f2550.h"
   662                           BSR equ 0FE0h ;# 
   663  0000                     # 7115 "C:\Program Files (x86)\Microchip\xc8\v2.00\pic\include\pic18f2550.h"
   664                           FSR1 equ 0FE1h ;# 
   665  0000                     # 7122 "C:\Program Files (x86)\Microchip\xc8\v2.00\pic\include\pic18f2550.h"
   666                           FSR1L equ 0FE1h ;# 
   667  0000                     # 7129 "C:\Program Files (x86)\Microchip\xc8\v2.00\pic\include\pic18f2550.h"
   668                           FSR1H equ 0FE2h ;# 
   669  0000                     # 7136 "C:\Program Files (x86)\Microchip\xc8\v2.00\pic\include\pic18f2550.h"
   670                           PLUSW1 equ 0FE3h ;# 
   671  0000                     # 7143 "C:\Program Files (x86)\Microchip\xc8\v2.00\pic\include\pic18f2550.h"
   672                           PREINC1 equ 0FE4h ;# 
   673  0000                     # 7150 "C:\Program Files (x86)\Microchip\xc8\v2.00\pic\include\pic18f2550.h"
   674                           POSTDEC1 equ 0FE5h ;# 
   675  0000                     # 7157 "C:\Program Files (x86)\Microchip\xc8\v2.00\pic\include\pic18f2550.h"
   676                           POSTINC1 equ 0FE6h ;# 
   677  0000                     # 7164 "C:\Program Files (x86)\Microchip\xc8\v2.00\pic\include\pic18f2550.h"
   678                           INDF1 equ 0FE7h ;# 
   679  0000                     # 7171 "C:\Program Files (x86)\Microchip\xc8\v2.00\pic\include\pic18f2550.h"
   680                           WREG equ 0FE8h ;# 
   681  0000                     # 7178 "C:\Program Files (x86)\Microchip\xc8\v2.00\pic\include\pic18f2550.h"
   682                           FSR0 equ 0FE9h ;# 
   683  0000                     # 7185 "C:\Program Files (x86)\Microchip\xc8\v2.00\pic\include\pic18f2550.h"
   684                           FSR0L equ 0FE9h ;# 
   685  0000                     # 7192 "C:\Program Files (x86)\Microchip\xc8\v2.00\pic\include\pic18f2550.h"
   686                           FSR0H equ 0FEAh ;# 
   687  0000                     # 7199 "C:\Program Files (x86)\Microchip\xc8\v2.00\pic\include\pic18f2550.h"
   688                           PLUSW0 equ 0FEBh ;# 
   689  0000                     # 7206 "C:\Program Files (x86)\Microchip\xc8\v2.00\pic\include\pic18f2550.h"
   690                           PREINC0 equ 0FECh ;# 
   691  0000                     # 7213 "C:\Program Files (x86)\Microchip\xc8\v2.00\pic\include\pic18f2550.h"
   692                           POSTDEC0 equ 0FEDh ;# 
   693  0000                     # 7220 "C:\Program Files (x86)\Microchip\xc8\v2.00\pic\include\pic18f2550.h"
   694                           POSTINC0 equ 0FEEh ;# 
   695  0000                     # 7227 "C:\Program Files (x86)\Microchip\xc8\v2.00\pic\include\pic18f2550.h"
   696                           INDF0 equ 0FEFh ;# 
   697  0000                     # 7234 "C:\Program Files (x86)\Microchip\xc8\v2.00\pic\include\pic18f2550.h"
   698                           INTCON3 equ 0FF0h ;# 
   699  0000                     # 7326 "C:\Program Files (x86)\Microchip\xc8\v2.00\pic\include\pic18f2550.h"
   700                           INTCON2 equ 0FF1h ;# 
   701  0000                     # 7403 "C:\Program Files (x86)\Microchip\xc8\v2.00\pic\include\pic18f2550.h"
   702                           INTCON equ 0FF2h ;# 
   703  0000                     # 7520 "C:\Program Files (x86)\Microchip\xc8\v2.00\pic\include\pic18f2550.h"
   704                           PROD equ 0FF3h ;# 
   705  0000                     # 7527 "C:\Program Files (x86)\Microchip\xc8\v2.00\pic\include\pic18f2550.h"
   706                           PRODL equ 0FF3h ;# 
   707  0000                     # 7534 "C:\Program Files (x86)\Microchip\xc8\v2.00\pic\include\pic18f2550.h"
   708                           PRODH equ 0FF4h ;# 
   709  0000                     # 7541 "C:\Program Files (x86)\Microchip\xc8\v2.00\pic\include\pic18f2550.h"
   710                           TABLAT equ 0FF5h ;# 
   711  0000                     # 7550 "C:\Program Files (x86)\Microchip\xc8\v2.00\pic\include\pic18f2550.h"
   712                           TBLPTR equ 0FF6h ;# 
   713  0000                     # 7557 "C:\Program Files (x86)\Microchip\xc8\v2.00\pic\include\pic18f2550.h"
   714                           TBLPTRL equ 0FF6h ;# 
   715  0000                     # 7564 "C:\Program Files (x86)\Microchip\xc8\v2.00\pic\include\pic18f2550.h"
   716                           TBLPTRH equ 0FF7h ;# 
   717  0000                     # 7571 "C:\Program Files (x86)\Microchip\xc8\v2.00\pic\include\pic18f2550.h"
   718                           TBLPTRU equ 0FF8h ;# 
   719  0000                     # 7580 "C:\Program Files (x86)\Microchip\xc8\v2.00\pic\include\pic18f2550.h"
   720                           PCLAT equ 0FF9h ;# 
   721  0000                     # 7587 "C:\Program Files (x86)\Microchip\xc8\v2.00\pic\include\pic18f2550.h"
   722                           PC equ 0FF9h ;# 
   723  0000                     # 7594 "C:\Program Files (x86)\Microchip\xc8\v2.00\pic\include\pic18f2550.h"
   724                           PCL equ 0FF9h ;# 
   725  0000                     # 7601 "C:\Program Files (x86)\Microchip\xc8\v2.00\pic\include\pic18f2550.h"
   726                           PCLATH equ 0FFAh ;# 
   727  0000                     # 7608 "C:\Program Files (x86)\Microchip\xc8\v2.00\pic\include\pic18f2550.h"
   728                           PCLATU equ 0FFBh ;# 
   729  0000                     # 7615 "C:\Program Files (x86)\Microchip\xc8\v2.00\pic\include\pic18f2550.h"
   730                           STKPTR equ 0FFCh ;# 
   731  0000                     # 7691 "C:\Program Files (x86)\Microchip\xc8\v2.00\pic\include\pic18f2550.h"
   732                           TOS equ 0FFDh ;# 
   733  0000                     # 7698 "C:\Program Files (x86)\Microchip\xc8\v2.00\pic\include\pic18f2550.h"
   734                           TOSL equ 0FFDh ;# 
   735  0000                     # 7705 "C:\Program Files (x86)\Microchip\xc8\v2.00\pic\include\pic18f2550.h"
   736                           TOSH equ 0FFEh ;# 
   737  0000                     # 7712 "C:\Program Files (x86)\Microchip\xc8\v2.00\pic\include\pic18f2550.h"
   738                           TOSU equ 0FFFh ;# 
   739  0000                     # 54 "C:\Program Files (x86)\Microchip\xc8\v2.00\pic\include\pic18f2550.h"
   740                           UFRM equ 0F66h ;# 
   741  0000                     # 61 "C:\Program Files (x86)\Microchip\xc8\v2.00\pic\include\pic18f2550.h"
   742                           UFRML equ 0F66h ;# 
   743  0000                     # 139 "C:\Program Files (x86)\Microchip\xc8\v2.00\pic\include\pic18f2550.h"
   744                           UFRMH equ 0F67h ;# 
   745  0000                     # 179 "C:\Program Files (x86)\Microchip\xc8\v2.00\pic\include\pic18f2550.h"
   746                           UIR equ 0F68h ;# 
   747  0000                     # 235 "C:\Program Files (x86)\Microchip\xc8\v2.00\pic\include\pic18f2550.h"
   748                           UIE equ 0F69h ;# 
   749  0000                     # 291 "C:\Program Files (x86)\Microchip\xc8\v2.00\pic\include\pic18f2550.h"
   750                           UEIR equ 0F6Ah ;# 
   751  0000                     # 342 "C:\Program Files (x86)\Microchip\xc8\v2.00\pic\include\pic18f2550.h"
   752                           UEIE equ 0F6Bh ;# 
   753  0000                     # 393 "C:\Program Files (x86)\Microchip\xc8\v2.00\pic\include\pic18f2550.h"
   754                           USTAT equ 0F6Ch ;# 
   755  0000                     # 453 "C:\Program Files (x86)\Microchip\xc8\v2.00\pic\include\pic18f2550.h"
   756                           UCON equ 0F6Dh ;# 
   757  0000                     # 504 "C:\Program Files (x86)\Microchip\xc8\v2.00\pic\include\pic18f2550.h"
   758                           UADDR equ 0F6Eh ;# 
   759  0000                     # 568 "C:\Program Files (x86)\Microchip\xc8\v2.00\pic\include\pic18f2550.h"
   760                           UCFG equ 0F6Fh ;# 
   761  0000                     # 647 "C:\Program Files (x86)\Microchip\xc8\v2.00\pic\include\pic18f2550.h"
   762                           UEP0 equ 0F70h ;# 
   763  0000                     # 755 "C:\Program Files (x86)\Microchip\xc8\v2.00\pic\include\pic18f2550.h"
   764                           UEP1 equ 0F71h ;# 
   765  0000                     # 863 "C:\Program Files (x86)\Microchip\xc8\v2.00\pic\include\pic18f2550.h"
   766                           UEP2 equ 0F72h ;# 
   767  0000                     # 971 "C:\Program Files (x86)\Microchip\xc8\v2.00\pic\include\pic18f2550.h"
   768                           UEP3 equ 0F73h ;# 
   769  0000                     # 1079 "C:\Program Files (x86)\Microchip\xc8\v2.00\pic\include\pic18f2550.h"
   770                           UEP4 equ 0F74h ;# 
   771  0000                     # 1187 "C:\Program Files (x86)\Microchip\xc8\v2.00\pic\include\pic18f2550.h"
   772                           UEP5 equ 0F75h ;# 
   773  0000                     # 1295 "C:\Program Files (x86)\Microchip\xc8\v2.00\pic\include\pic18f2550.h"
   774                           UEP6 equ 0F76h ;# 
   775  0000                     # 1403 "C:\Program Files (x86)\Microchip\xc8\v2.00\pic\include\pic18f2550.h"
   776                           UEP7 equ 0F77h ;# 
   777  0000                     # 1511 "C:\Program Files (x86)\Microchip\xc8\v2.00\pic\include\pic18f2550.h"
   778                           UEP8 equ 0F78h ;# 
   779  0000                     # 1587 "C:\Program Files (x86)\Microchip\xc8\v2.00\pic\include\pic18f2550.h"
   780                           UEP9 equ 0F79h ;# 
   781  0000                     # 1663 "C:\Program Files (x86)\Microchip\xc8\v2.00\pic\include\pic18f2550.h"
   782                           UEP10 equ 0F7Ah ;# 
   783  0000                     # 1739 "C:\Program Files (x86)\Microchip\xc8\v2.00\pic\include\pic18f2550.h"
   784                           UEP11 equ 0F7Bh ;# 
   785  0000                     # 1815 "C:\Program Files (x86)\Microchip\xc8\v2.00\pic\include\pic18f2550.h"
   786                           UEP12 equ 0F7Ch ;# 
   787  0000                     # 1891 "C:\Program Files (x86)\Microchip\xc8\v2.00\pic\include\pic18f2550.h"
   788                           UEP13 equ 0F7Dh ;# 
   789  0000                     # 1967 "C:\Program Files (x86)\Microchip\xc8\v2.00\pic\include\pic18f2550.h"
   790                           UEP14 equ 0F7Eh ;# 
   791  0000                     # 2043 "C:\Program Files (x86)\Microchip\xc8\v2.00\pic\include\pic18f2550.h"
   792                           UEP15 equ 0F7Fh ;# 
   793  0000                     # 2119 "C:\Program Files (x86)\Microchip\xc8\v2.00\pic\include\pic18f2550.h"
   794                           PORTA equ 0F80h ;# 
   795  0000                     # 2258 "C:\Program Files (x86)\Microchip\xc8\v2.00\pic\include\pic18f2550.h"
   796                           PORTB equ 0F81h ;# 
   797  0000                     # 2368 "C:\Program Files (x86)\Microchip\xc8\v2.00\pic\include\pic18f2550.h"
   798                           PORTC equ 0F82h ;# 
   799  0000                     # 2510 "C:\Program Files (x86)\Microchip\xc8\v2.00\pic\include\pic18f2550.h"
   800                           PORTE equ 0F84h ;# 
   801  0000                     # 2549 "C:\Program Files (x86)\Microchip\xc8\v2.00\pic\include\pic18f2550.h"
   802                           LATA equ 0F89h ;# 
   803  0000                     # 2649 "C:\Program Files (x86)\Microchip\xc8\v2.00\pic\include\pic18f2550.h"
   804                           LATB equ 0F8Ah ;# 
   805  0000                     # 2761 "C:\Program Files (x86)\Microchip\xc8\v2.00\pic\include\pic18f2550.h"
   806                           LATC equ 0F8Bh ;# 
   807  0000                     # 2839 "C:\Program Files (x86)\Microchip\xc8\v2.00\pic\include\pic18f2550.h"
   808                           TRISA equ 0F92h ;# 
   809  0000                     # 2844 "C:\Program Files (x86)\Microchip\xc8\v2.00\pic\include\pic18f2550.h"
   810                           DDRA equ 0F92h ;# 
   811  0000                     # 3037 "C:\Program Files (x86)\Microchip\xc8\v2.00\pic\include\pic18f2550.h"
   812                           TRISB equ 0F93h ;# 
   813  0000                     # 3042 "C:\Program Files (x86)\Microchip\xc8\v2.00\pic\include\pic18f2550.h"
   814                           DDRB equ 0F93h ;# 
   815  0000                     # 3259 "C:\Program Files (x86)\Microchip\xc8\v2.00\pic\include\pic18f2550.h"
   816                           TRISC equ 0F94h ;# 
   817  0000                     # 3264 "C:\Program Files (x86)\Microchip\xc8\v2.00\pic\include\pic18f2550.h"
   818                           DDRC equ 0F94h ;# 
   819  0000                     # 3413 "C:\Program Files (x86)\Microchip\xc8\v2.00\pic\include\pic18f2550.h"
   820                           OSCTUNE equ 0F9Bh ;# 
   821  0000                     # 3472 "C:\Program Files (x86)\Microchip\xc8\v2.00\pic\include\pic18f2550.h"
   822                           PIE1 equ 0F9Dh ;# 
   823  0000                     # 3543 "C:\Program Files (x86)\Microchip\xc8\v2.00\pic\include\pic18f2550.h"
   824                           PIR1 equ 0F9Eh ;# 
   825  0000                     # 3614 "C:\Program Files (x86)\Microchip\xc8\v2.00\pic\include\pic18f2550.h"
   826                           IPR1 equ 0F9Fh ;# 
   827  0000                     # 3685 "C:\Program Files (x86)\Microchip\xc8\v2.00\pic\include\pic18f2550.h"
   828                           PIE2 equ 0FA0h ;# 
   829  0000                     # 3756 "C:\Program Files (x86)\Microchip\xc8\v2.00\pic\include\pic18f2550.h"
   830                           PIR2 equ 0FA1h ;# 
   831  0000                     # 3827 "C:\Program Files (x86)\Microchip\xc8\v2.00\pic\include\pic18f2550.h"
   832                           IPR2 equ 0FA2h ;# 
   833  0000                     # 3898 "C:\Program Files (x86)\Microchip\xc8\v2.00\pic\include\pic18f2550.h"
   834                           EECON1 equ 0FA6h ;# 
   835  0000                     # 3964 "C:\Program Files (x86)\Microchip\xc8\v2.00\pic\include\pic18f2550.h"
   836                           EECON2 equ 0FA7h ;# 
   837  0000                     # 3971 "C:\Program Files (x86)\Microchip\xc8\v2.00\pic\include\pic18f2550.h"
   838                           EEDATA equ 0FA8h ;# 
   839  0000                     # 3978 "C:\Program Files (x86)\Microchip\xc8\v2.00\pic\include\pic18f2550.h"
   840                           EEADR equ 0FA9h ;# 
   841  0000                     # 3985 "C:\Program Files (x86)\Microchip\xc8\v2.00\pic\include\pic18f2550.h"
   842                           RCSTA equ 0FABh ;# 
   843  0000                     # 3990 "C:\Program Files (x86)\Microchip\xc8\v2.00\pic\include\pic18f2550.h"
   844                           RCSTA1 equ 0FABh ;# 
   845  0000                     # 4195 "C:\Program Files (x86)\Microchip\xc8\v2.00\pic\include\pic18f2550.h"
   846                           TXSTA equ 0FACh ;# 
   847  0000                     # 4200 "C:\Program Files (x86)\Microchip\xc8\v2.00\pic\include\pic18f2550.h"
   848                           TXSTA1 equ 0FACh ;# 
   849  0000                     # 4451 "C:\Program Files (x86)\Microchip\xc8\v2.00\pic\include\pic18f2550.h"
   850                           TXREG equ 0FADh ;# 
   851  0000                     # 4456 "C:\Program Files (x86)\Microchip\xc8\v2.00\pic\include\pic18f2550.h"
   852                           TXREG1 equ 0FADh ;# 
   853  0000                     # 4463 "C:\Program Files (x86)\Microchip\xc8\v2.00\pic\include\pic18f2550.h"
   854                           RCREG equ 0FAEh ;# 
   855  0000                     # 4468 "C:\Program Files (x86)\Microchip\xc8\v2.00\pic\include\pic18f2550.h"
   856                           RCREG1 equ 0FAEh ;# 
   857  0000                     # 4475 "C:\Program Files (x86)\Microchip\xc8\v2.00\pic\include\pic18f2550.h"
   858                           SPBRG equ 0FAFh ;# 
   859  0000                     # 4480 "C:\Program Files (x86)\Microchip\xc8\v2.00\pic\include\pic18f2550.h"
   860                           SPBRG1 equ 0FAFh ;# 
   861  0000                     # 4487 "C:\Program Files (x86)\Microchip\xc8\v2.00\pic\include\pic18f2550.h"
   862                           SPBRGH equ 0FB0h ;# 
   863  0000                     # 4494 "C:\Program Files (x86)\Microchip\xc8\v2.00\pic\include\pic18f2550.h"
   864                           T3CON equ 0FB1h ;# 
   865  0000                     # 4615 "C:\Program Files (x86)\Microchip\xc8\v2.00\pic\include\pic18f2550.h"
   866                           TMR3 equ 0FB2h ;# 
   867  0000                     # 4622 "C:\Program Files (x86)\Microchip\xc8\v2.00\pic\include\pic18f2550.h"
   868                           TMR3L equ 0FB2h ;# 
   869  0000                     # 4629 "C:\Program Files (x86)\Microchip\xc8\v2.00\pic\include\pic18f2550.h"
   870                           TMR3H equ 0FB3h ;# 
   871  0000                     # 4636 "C:\Program Files (x86)\Microchip\xc8\v2.00\pic\include\pic18f2550.h"
   872                           CMCON equ 0FB4h ;# 
   873  0000                     # 4726 "C:\Program Files (x86)\Microchip\xc8\v2.00\pic\include\pic18f2550.h"
   874                           CVRCON equ 0FB5h ;# 
   875  0000                     # 4811 "C:\Program Files (x86)\Microchip\xc8\v2.00\pic\include\pic18f2550.h"
   876                           ECCP1AS equ 0FB6h ;# 
   877  0000                     # 4816 "C:\Program Files (x86)\Microchip\xc8\v2.00\pic\include\pic18f2550.h"
   878                           CCP1AS equ 0FB6h ;# 
   879  0000                     # 4941 "C:\Program Files (x86)\Microchip\xc8\v2.00\pic\include\pic18f2550.h"
   880                           ECCP1DEL equ 0FB7h ;# 
   881  0000                     # 4946 "C:\Program Files (x86)\Microchip\xc8\v2.00\pic\include\pic18f2550.h"
   882                           CCP1DEL equ 0FB7h ;# 
   883  0000                     # 4981 "C:\Program Files (x86)\Microchip\xc8\v2.00\pic\include\pic18f2550.h"
   884                           BAUDCON equ 0FB8h ;# 
   885  0000                     # 4986 "C:\Program Files (x86)\Microchip\xc8\v2.00\pic\include\pic18f2550.h"
   886                           BAUDCTL equ 0FB8h ;# 
   887  0000                     # 5161 "C:\Program Files (x86)\Microchip\xc8\v2.00\pic\include\pic18f2550.h"
   888                           CCP2CON equ 0FBAh ;# 
   889  0000                     # 5225 "C:\Program Files (x86)\Microchip\xc8\v2.00\pic\include\pic18f2550.h"
   890                           CCPR2 equ 0FBBh ;# 
   891  0000                     # 5232 "C:\Program Files (x86)\Microchip\xc8\v2.00\pic\include\pic18f2550.h"
   892                           CCPR2L equ 0FBBh ;# 
   893  0000                     # 5239 "C:\Program Files (x86)\Microchip\xc8\v2.00\pic\include\pic18f2550.h"
   894                           CCPR2H equ 0FBCh ;# 
   895  0000                     # 5246 "C:\Program Files (x86)\Microchip\xc8\v2.00\pic\include\pic18f2550.h"
   896                           CCP1CON equ 0FBDh ;# 
   897  0000                     # 5310 "C:\Program Files (x86)\Microchip\xc8\v2.00\pic\include\pic18f2550.h"
   898                           CCPR1 equ 0FBEh ;# 
   899  0000                     # 5317 "C:\Program Files (x86)\Microchip\xc8\v2.00\pic\include\pic18f2550.h"
   900                           CCPR1L equ 0FBEh ;# 
   901  0000                     # 5324 "C:\Program Files (x86)\Microchip\xc8\v2.00\pic\include\pic18f2550.h"
   902                           CCPR1H equ 0FBFh ;# 
   903  0000                     # 5331 "C:\Program Files (x86)\Microchip\xc8\v2.00\pic\include\pic18f2550.h"
   904                           ADCON2 equ 0FC0h ;# 
   905  0000                     # 5402 "C:\Program Files (x86)\Microchip\xc8\v2.00\pic\include\pic18f2550.h"
   906                           ADCON1 equ 0FC1h ;# 
   907  0000                     # 5487 "C:\Program Files (x86)\Microchip\xc8\v2.00\pic\include\pic18f2550.h"
   908                           ADCON0 equ 0FC2h ;# 
   909  0000                     # 5606 "C:\Program Files (x86)\Microchip\xc8\v2.00\pic\include\pic18f2550.h"
   910                           ADRES equ 0FC3h ;# 
   911  0000                     # 5613 "C:\Program Files (x86)\Microchip\xc8\v2.00\pic\include\pic18f2550.h"
   912                           ADRESL equ 0FC3h ;# 
   913  0000                     # 5620 "C:\Program Files (x86)\Microchip\xc8\v2.00\pic\include\pic18f2550.h"
   914                           ADRESH equ 0FC4h ;# 
   915  0000                     # 5627 "C:\Program Files (x86)\Microchip\xc8\v2.00\pic\include\pic18f2550.h"
   916                           SSPCON2 equ 0FC5h ;# 
   917  0000                     # 5689 "C:\Program Files (x86)\Microchip\xc8\v2.00\pic\include\pic18f2550.h"
   918                           SSPCON1 equ 0FC6h ;# 
   919  0000                     # 5759 "C:\Program Files (x86)\Microchip\xc8\v2.00\pic\include\pic18f2550.h"
   920                           SSPSTAT equ 0FC7h ;# 
   921  0000                     # 6007 "C:\Program Files (x86)\Microchip\xc8\v2.00\pic\include\pic18f2550.h"
   922                           SSPADD equ 0FC8h ;# 
   923  0000                     # 6014 "C:\Program Files (x86)\Microchip\xc8\v2.00\pic\include\pic18f2550.h"
   924                           SSPBUF equ 0FC9h ;# 
   925  0000                     # 6021 "C:\Program Files (x86)\Microchip\xc8\v2.00\pic\include\pic18f2550.h"
   926                           T2CON equ 0FCAh ;# 
   927  0000                     # 6119 "C:\Program Files (x86)\Microchip\xc8\v2.00\pic\include\pic18f2550.h"
   928                           PR2 equ 0FCBh ;# 
   929  0000                     # 6124 "C:\Program Files (x86)\Microchip\xc8\v2.00\pic\include\pic18f2550.h"
   930                           MEMCON equ 0FCBh ;# 
   931  0000                     # 6229 "C:\Program Files (x86)\Microchip\xc8\v2.00\pic\include\pic18f2550.h"
   932                           TMR2 equ 0FCCh ;# 
   933  0000                     # 6236 "C:\Program Files (x86)\Microchip\xc8\v2.00\pic\include\pic18f2550.h"
   934                           T1CON equ 0FCDh ;# 
   935  0000                     # 6339 "C:\Program Files (x86)\Microchip\xc8\v2.00\pic\include\pic18f2550.h"
   936                           TMR1 equ 0FCEh ;# 
   937  0000                     # 6346 "C:\Program Files (x86)\Microchip\xc8\v2.00\pic\include\pic18f2550.h"
   938                           TMR1L equ 0FCEh ;# 
   939  0000                     # 6353 "C:\Program Files (x86)\Microchip\xc8\v2.00\pic\include\pic18f2550.h"
   940                           TMR1H equ 0FCFh ;# 
   941  0000                     # 6360 "C:\Program Files (x86)\Microchip\xc8\v2.00\pic\include\pic18f2550.h"
   942                           RCON equ 0FD0h ;# 
   943  0000                     # 6509 "C:\Program Files (x86)\Microchip\xc8\v2.00\pic\include\pic18f2550.h"
   944                           WDTCON equ 0FD1h ;# 
   945  0000                     # 6537 "C:\Program Files (x86)\Microchip\xc8\v2.00\pic\include\pic18f2550.h"
   946                           HLVDCON equ 0FD2h ;# 
   947  0000                     # 6542 "C:\Program Files (x86)\Microchip\xc8\v2.00\pic\include\pic18f2550.h"
   948                           LVDCON equ 0FD2h ;# 
   949  0000                     # 6807 "C:\Program Files (x86)\Microchip\xc8\v2.00\pic\include\pic18f2550.h"
   950                           OSCCON equ 0FD3h ;# 
   951  0000                     # 6890 "C:\Program Files (x86)\Microchip\xc8\v2.00\pic\include\pic18f2550.h"
   952                           T0CON equ 0FD5h ;# 
   953  0000                     # 6960 "C:\Program Files (x86)\Microchip\xc8\v2.00\pic\include\pic18f2550.h"
   954                           TMR0 equ 0FD6h ;# 
   955  0000                     # 6967 "C:\Program Files (x86)\Microchip\xc8\v2.00\pic\include\pic18f2550.h"
   956                           TMR0L equ 0FD6h ;# 
   957  0000                     # 6974 "C:\Program Files (x86)\Microchip\xc8\v2.00\pic\include\pic18f2550.h"
   958                           TMR0H equ 0FD7h ;# 
   959  0000                     # 6981 "C:\Program Files (x86)\Microchip\xc8\v2.00\pic\include\pic18f2550.h"
   960                           STATUS equ 0FD8h ;# 
   961  0000                     # 7052 "C:\Program Files (x86)\Microchip\xc8\v2.00\pic\include\pic18f2550.h"
   962                           FSR2 equ 0FD9h ;# 
   963  0000                     # 7059 "C:\Program Files (x86)\Microchip\xc8\v2.00\pic\include\pic18f2550.h"
   964                           FSR2L equ 0FD9h ;# 
   965  0000                     # 7066 "C:\Program Files (x86)\Microchip\xc8\v2.00\pic\include\pic18f2550.h"
   966                           FSR2H equ 0FDAh ;# 
   967  0000                     # 7073 "C:\Program Files (x86)\Microchip\xc8\v2.00\pic\include\pic18f2550.h"
   968                           PLUSW2 equ 0FDBh ;# 
   969  0000                     # 7080 "C:\Program Files (x86)\Microchip\xc8\v2.00\pic\include\pic18f2550.h"
   970                           PREINC2 equ 0FDCh ;# 
   971  0000                     # 7087 "C:\Program Files (x86)\Microchip\xc8\v2.00\pic\include\pic18f2550.h"
   972                           POSTDEC2 equ 0FDDh ;# 
   973  0000                     # 7094 "C:\Program Files (x86)\Microchip\xc8\v2.00\pic\include\pic18f2550.h"
   974                           POSTINC2 equ 0FDEh ;# 
   975  0000                     # 7101 "C:\Program Files (x86)\Microchip\xc8\v2.00\pic\include\pic18f2550.h"
   976                           INDF2 equ 0FDFh ;# 
   977  0000                     # 7108 "C:\Program Files (x86)\Microchip\xc8\v2.00\pic\include\pic18f2550.h"
   978                           BSR equ 0FE0h ;# 
   979  0000                     # 7115 "C:\Program Files (x86)\Microchip\xc8\v2.00\pic\include\pic18f2550.h"
   980                           FSR1 equ 0FE1h ;# 
   981  0000                     # 7122 "C:\Program Files (x86)\Microchip\xc8\v2.00\pic\include\pic18f2550.h"
   982                           FSR1L equ 0FE1h ;# 
   983  0000                     # 7129 "C:\Program Files (x86)\Microchip\xc8\v2.00\pic\include\pic18f2550.h"
   984                           FSR1H equ 0FE2h ;# 
   985  0000                     # 7136 "C:\Program Files (x86)\Microchip\xc8\v2.00\pic\include\pic18f2550.h"
   986                           PLUSW1 equ 0FE3h ;# 
   987  0000                     # 7143 "C:\Program Files (x86)\Microchip\xc8\v2.00\pic\include\pic18f2550.h"
   988                           PREINC1 equ 0FE4h ;# 
   989  0000                     # 7150 "C:\Program Files (x86)\Microchip\xc8\v2.00\pic\include\pic18f2550.h"
   990                           POSTDEC1 equ 0FE5h ;# 
   991  0000                     # 7157 "C:\Program Files (x86)\Microchip\xc8\v2.00\pic\include\pic18f2550.h"
   992                           POSTINC1 equ 0FE6h ;# 
   993  0000                     # 7164 "C:\Program Files (x86)\Microchip\xc8\v2.00\pic\include\pic18f2550.h"
   994                           INDF1 equ 0FE7h ;# 
   995  0000                     # 7171 "C:\Program Files (x86)\Microchip\xc8\v2.00\pic\include\pic18f2550.h"
   996                           WREG equ 0FE8h ;# 
   997  0000                     # 7178 "C:\Program Files (x86)\Microchip\xc8\v2.00\pic\include\pic18f2550.h"
   998                           FSR0 equ 0FE9h ;# 
   999  0000                     # 7185 "C:\Program Files (x86)\Microchip\xc8\v2.00\pic\include\pic18f2550.h"
  1000                           FSR0L equ 0FE9h ;# 
  1001  0000                     # 7192 "C:\Program Files (x86)\Microchip\xc8\v2.00\pic\include\pic18f2550.h"
  1002                           FSR0H equ 0FEAh ;# 
  1003  0000                     # 7199 "C:\Program Files (x86)\Microchip\xc8\v2.00\pic\include\pic18f2550.h"
  1004                           PLUSW0 equ 0FEBh ;# 
  1005  0000                     # 7206 "C:\Program Files (x86)\Microchip\xc8\v2.00\pic\include\pic18f2550.h"
  1006                           PREINC0 equ 0FECh ;# 
  1007  0000                     # 7213 "C:\Program Files (x86)\Microchip\xc8\v2.00\pic\include\pic18f2550.h"
  1008                           POSTDEC0 equ 0FEDh ;# 
  1009  0000                     # 7220 "C:\Program Files (x86)\Microchip\xc8\v2.00\pic\include\pic18f2550.h"
  1010                           POSTINC0 equ 0FEEh ;# 
  1011  0000                     # 7227 "C:\Program Files (x86)\Microchip\xc8\v2.00\pic\include\pic18f2550.h"
  1012                           INDF0 equ 0FEFh ;# 
  1013  0000                     # 7234 "C:\Program Files (x86)\Microchip\xc8\v2.00\pic\include\pic18f2550.h"
  1014                           INTCON3 equ 0FF0h ;# 
  1015  0000                     # 7326 "C:\Program Files (x86)\Microchip\xc8\v2.00\pic\include\pic18f2550.h"
  1016                           INTCON2 equ 0FF1h ;# 
  1017  0000                     # 7403 "C:\Program Files (x86)\Microchip\xc8\v2.00\pic\include\pic18f2550.h"
  1018                           INTCON equ 0FF2h ;# 
  1019  0000                     # 7520 "C:\Program Files (x86)\Microchip\xc8\v2.00\pic\include\pic18f2550.h"
  1020                           PROD equ 0FF3h ;# 
  1021  0000                     # 7527 "C:\Program Files (x86)\Microchip\xc8\v2.00\pic\include\pic18f2550.h"
  1022                           PRODL equ 0FF3h ;# 
  1023  0000                     # 7534 "C:\Program Files (x86)\Microchip\xc8\v2.00\pic\include\pic18f2550.h"
  1024                           PRODH equ 0FF4h ;# 
  1025  0000                     # 7541 "C:\Program Files (x86)\Microchip\xc8\v2.00\pic\include\pic18f2550.h"
  1026                           TABLAT equ 0FF5h ;# 
  1027  0000                     # 7550 "C:\Program Files (x86)\Microchip\xc8\v2.00\pic\include\pic18f2550.h"
  1028                           TBLPTR equ 0FF6h ;# 
  1029  0000                     # 7557 "C:\Program Files (x86)\Microchip\xc8\v2.00\pic\include\pic18f2550.h"
  1030                           TBLPTRL equ 0FF6h ;# 
  1031  0000                     # 7564 "C:\Program Files (x86)\Microchip\xc8\v2.00\pic\include\pic18f2550.h"
  1032                           TBLPTRH equ 0FF7h ;# 
  1033  0000                     # 7571 "C:\Program Files (x86)\Microchip\xc8\v2.00\pic\include\pic18f2550.h"
  1034                           TBLPTRU equ 0FF8h ;# 
  1035  0000                     # 7580 "C:\Program Files (x86)\Microchip\xc8\v2.00\pic\include\pic18f2550.h"
  1036                           PCLAT equ 0FF9h ;# 
  1037  0000                     # 7587 "C:\Program Files (x86)\Microchip\xc8\v2.00\pic\include\pic18f2550.h"
  1038                           PC equ 0FF9h ;# 
  1039  0000                     # 7594 "C:\Program Files (x86)\Microchip\xc8\v2.00\pic\include\pic18f2550.h"
  1040                           PCL equ 0FF9h ;# 
  1041  0000                     # 7601 "C:\Program Files (x86)\Microchip\xc8\v2.00\pic\include\pic18f2550.h"
  1042                           PCLATH equ 0FFAh ;# 
  1043  0000                     # 7608 "C:\Program Files (x86)\Microchip\xc8\v2.00\pic\include\pic18f2550.h"
  1044                           PCLATU equ 0FFBh ;# 
  1045  0000                     # 7615 "C:\Program Files (x86)\Microchip\xc8\v2.00\pic\include\pic18f2550.h"
  1046                           STKPTR equ 0FFCh ;# 
  1047  0000                     # 7691 "C:\Program Files (x86)\Microchip\xc8\v2.00\pic\include\pic18f2550.h"
  1048                           TOS equ 0FFDh ;# 
  1049  0000                     # 7698 "C:\Program Files (x86)\Microchip\xc8\v2.00\pic\include\pic18f2550.h"
  1050                           TOSL equ 0FFDh ;# 
  1051  0000                     # 7705 "C:\Program Files (x86)\Microchip\xc8\v2.00\pic\include\pic18f2550.h"
  1052                           TOSH equ 0FFEh ;# 
  1053  0000                     # 7712 "C:\Program Files (x86)\Microchip\xc8\v2.00\pic\include\pic18f2550.h"
  1054                           TOSU equ 0FFFh ;# 
  1055  0000                     	FNCALL	_main,_i2C_Setup
  1056                           	FNCALL	_main,_interrupts_Setup
  1057                           	FNCALL	_main,_vl5310x_Setup
  1058                           	FNROOT	_main
  1059                           	FNCALL	_interrupts_Event,_vl53l0x_I2C_ReceiveData
  1060                           	FNCALL	_vl53l0x_I2C_ReceiveData,_i2C_ReceiveData
  1061                           	FNCALL	_i2C_ReceiveData,_i2C_RepeatedStart
  1062                           	FNCALL	_i2C_ReceiveData,_i2C_Start
  1063                           	FNCALL	_i2C_ReceiveData,_i2C_Stop
  1064                           	FNCALL	_i2C_Start,_i2C_Wait
  1065                           	FNCALL	_i2C_RepeatedStart,_i2C_Wait
  1066                           	FNCALL	intlevel2,_interrupts_Event
  1067                           	global	intlevel2
  1068                           	FNROOT	intlevel2
  1069                           	global	vl53l0x_i2C_SendData@F21
  1070                           	global	vl53l0x_I2C_ReceiveData@F28
  1071                           	global	vl53l0x_I2C_ReceiveData@F26
  1072                           	global	_SSPBUF
  1073                           _SSPBUF	set	0xFC9
  1074  0000                     	global	_SSPADD
  1075                           _SSPADD	set	0xFC8
  1076  0000                     	global	_SSPCON2bits
  1077                           _SSPCON2bits	set	0xFC5
  1078  0000                     	global	_SSPCON1bits
  1079                           _SSPCON1bits	set	0xFC6
  1080  0000                     	global	_SSPSTATbits
  1081                           _SSPSTATbits	set	0xFC7
  1082  0000                     	global	_PIR2bits
  1083                           _PIR2bits	set	0xFA1
  1084  0000                     	global	_PIR1bits
  1085                           _PIR1bits	set	0xF9E
  1086  0000                     	global	_PORTBbits
  1087                           _PORTBbits	set	0xF81
  1088  0000                     	global	_IPR2bits
  1089                           _IPR2bits	set	0xFA2
  1090  0000                     	global	_IPR1bits
  1091                           _IPR1bits	set	0xF9F
  1092  0000                     	global	_PIE2bits
  1093                           _PIE2bits	set	0xFA0
  1094  0000                     	global	_PIE1bits
  1095                           _PIE1bits	set	0xF9D
  1096  0000                     	global	_INTCON3bits
  1097                           _INTCON3bits	set	0xFF0
  1098  0000                     	global	_INTCON2bits
  1099                           _INTCON2bits	set	0xFF1
  1100  0000                     	global	_INTCONbits
  1101                           _INTCONbits	set	0xFF2
  1102  0000                     	global	_TRISBbits
  1103                           _TRISBbits	set	0xF93
  1104  0000                     	global	_T0CONbits
  1105                           _T0CONbits	set	0xFD5
  1106  0000                     ; #config settings
  1107                           global __CFG_FOSC$INTOSC_EC
  1108                           __CFG_FOSC$INTOSC_EC equ 0x0
  1109  0000                     global __CFG_WDT$OFF
  1110                           __CFG_WDT$OFF equ 0x0
  1111  0000                     global __CFG_MCLRE$OFF
  1112                           __CFG_MCLRE$OFF equ 0x0
  1113  0000                     	file	"C:\Users\Jamie\AppData\Local\Temp\s5es."
  1114                           	line	#
  1115                           psect	cinit,class=CODE,delta=1,reloc=2
  1116                           global __pcinit
  1117                           __pcinit:
  1118  00061C                     global start_initialization
  1119                           start_initialization:
  1120  00061C                     
  1121                           global __initialization
  1122                           __initialization:
  1123  00061C                     psect	bssCOMRAM,class=COMRAM,space=1,noexec
  1124                           global __pbssCOMRAM
  1125                           __pbssCOMRAM:
  1126  000015                     vl53l0x_i2C_SendData@F21:
  1127  000015                            ds      2
  1128  000015                     vl53l0x_I2C_ReceiveData@F28:
  1129  000017                            ds      1
  1130  000017                     vl53l0x_I2C_ReceiveData@F26:
  1131  000018                            ds      1
  1132  000018                     	file	"C:\Users\Jamie\AppData\Local\Temp\s5es."
  1133                           	line	#
  1134                           psect	cinit
  1135                           ; Clear objects allocated to COMRAM (4 bytes)
  1136                           	global __pbssCOMRAM
  1137                           clrf	(__pbssCOMRAM+3)&0xffh,c
  1138  00061C  6A18               clrf	(__pbssCOMRAM+2)&0xffh,c
  1139  00061E  6A17               clrf	(__pbssCOMRAM+1)&0xffh,c
  1140  000620  6A16               clrf	(__pbssCOMRAM+0)&0xffh,c
  1141  000622  6A15               psect cinit,class=CODE,delta=1
  1142                           global end_of_initialization,__end_of__initialization
  1143                           
  1144                           ;End of C runtime variable initialization code
  1145                           
  1146                           end_of_initialization:
  1147  000624                     __end_of__initialization:
  1148  000624                     	bcf int$flags,0,c ;clear compiler interrupt flag (level 1)
  1149  000624  9019               	bcf int$flags,1,c ;clear compiler interrupt flag (level 2)
  1150  000626  9219               movlb 0
  1151  000628  0100               goto _main	;jump to C main() function
  1152  00062A  EFD2  F002         psect	cstackCOMRAM,class=COMRAM,space=1,noexec
  1153                           global __pcstackCOMRAM
  1154                           __pcstackCOMRAM:
  1155  000001                     ?_interrupts_Setup:	; 1 bytes @ 0x0
  1156  000001                     ?_i2C_Setup:	; 1 bytes @ 0x0
  1157  000001                     ?_vl5310x_Setup:	; 1 bytes @ 0x0
  1158  000001                     ?_main:	; 1 bytes @ 0x0
  1159  000001                     ?_interrupts_Event:	; 1 bytes @ 0x0
  1160  000001                     ?_i2C_Wait:	; 1 bytes @ 0x0
  1161  000001                     ??_i2C_Wait:	; 1 bytes @ 0x0
  1162  000001                     ?_i2C_Start:	; 1 bytes @ 0x0
  1163  000001                     ??_i2C_Start:	; 1 bytes @ 0x0
  1164  000001                     ?_i2C_RepeatedStart:	; 1 bytes @ 0x0
  1165  000001                     ??_i2C_RepeatedStart:	; 1 bytes @ 0x0
  1166  000001                     ?_i2C_Stop:	; 1 bytes @ 0x0
  1167  000001                     ??_i2C_Stop:	; 1 bytes @ 0x0
  1168  000001                     ?_i2C_ReceiveData:	; 1 bytes @ 0x0
  1169  000001                     	global	i2C_ReceiveData@sendBytes
  1170                           i2C_ReceiveData@sendBytes:	; 2 bytes @ 0x0
  1171  000001                     	ds   2
  1172  000001                     	global	i2C_ReceiveData@numberOfSendBytes
  1173                           i2C_ReceiveData@numberOfSendBytes:	; 1 bytes @ 0x2
  1174  000003                     	ds   1
  1175  000003                     	global	i2C_ReceiveData@recievedBytesPointer
  1176                           i2C_ReceiveData@recievedBytesPointer:	; 2 bytes @ 0x3
  1177  000004                     	ds   2
  1178  000004                     	global	i2C_ReceiveData@numberOfReceivedBytes
  1179                           i2C_ReceiveData@numberOfReceivedBytes:	; 1 bytes @ 0x5
  1180  000006                     	ds   1
  1181  000006                     ??_i2C_ReceiveData:	; 1 bytes @ 0x6
  1182  000007                     	global	i2C_ReceiveData@i2C_address
  1183                           i2C_ReceiveData@i2C_address:	; 1 bytes @ 0x6
  1184  000007                     	ds   1
  1185  000007                     	global	i2C_ReceiveData@i
  1186                           i2C_ReceiveData@i:	; 1 bytes @ 0x7
  1187  000008                     	ds   1
  1188  000008                     	global	i2C_ReceiveData@i_848
  1189                           i2C_ReceiveData@i_848:	; 1 bytes @ 0x8
  1190  000009                     	ds   1
  1191  000009                     ?_vl53l0x_I2C_ReceiveData:	; 1 bytes @ 0x9
  1192  00000A                     	global	vl53l0x_I2C_ReceiveData@device_register
  1193                           vl53l0x_I2C_ReceiveData@device_register:	; 1 bytes @ 0x9
  1194  00000A                     	ds   1
  1195  00000A                     ??_vl53l0x_I2C_ReceiveData:	; 1 bytes @ 0xA
  1196  00000B                     	global	vl53l0x_I2C_ReceiveData@slave_address
  1197                           vl53l0x_I2C_ReceiveData@slave_address:	; 1 bytes @ 0xA
  1198  00000B                     	ds   1
  1199  00000B                     	global	vl53l0x_I2C_ReceiveData@sendData
  1200                           vl53l0x_I2C_ReceiveData@sendData:	; 1 bytes @ 0xB
  1201  00000C                     	ds   1
  1202  00000C                     	global	vl53l0x_I2C_ReceiveData@recievedData
  1203                           vl53l0x_I2C_ReceiveData@recievedData:	; 1 bytes @ 0xC
  1204  00000D                     	ds   1
  1205  00000D                     ??_interrupts_Event:	; 1 bytes @ 0xD
  1206  00000E                     	ds   4
  1207  00000E                     	global	interrupts_Event@slave_address
  1208                           interrupts_Event@slave_address:	; 1 bytes @ 0x11
  1209  000012                     	ds   1
  1210  000012                     	global	interrupts_Event@device_register
  1211                           interrupts_Event@device_register:	; 1 bytes @ 0x12
  1212  000013                     	ds   1
  1213  000013                     	global	interrupts_Event@value
  1214                           interrupts_Event@value:	; 1 bytes @ 0x13
  1215  000014                     	ds   1
  1216  000014                     ??_interrupts_Setup:	; 1 bytes @ 0x14
  1217  000015                     ??_i2C_Setup:	; 1 bytes @ 0x14
  1218  000015                     ??_vl5310x_Setup:	; 1 bytes @ 0x14
  1219  000015                     ??_main:	; 1 bytes @ 0x14
  1220  000015                     ;!
  1221                           ;!Data Sizes:
  1222                           ;!    Strings     0
  1223                           ;!    Constant    0
  1224                           ;!    Data        0
  1225                           ;!    BSS         4
  1226                           ;!    Persistent  0
  1227                           ;!    Stack       0
  1228                           ;!
  1229                           ;!Auto Spaces:
  1230                           ;!    Space          Size  Autos    Used
  1231                           ;!    COMRAM           94     20      24
  1232                           ;!    BANK0           160      0       0
  1233                           ;!    BANK1           256      0       0
  1234                           ;!    BANK2           256      0       0
  1235                           ;!    BANK3           256      0       0
  1236                           ;!    BANK4           256      0       0
  1237                           ;!    BANK5           256      0       0
  1238                           ;!    BANK6           256      0       0
  1239                           ;!    BANK7           256      0       0
  1240                           
  1241                           ;!
  1242                           ;!Pointer List with Targets:
  1243                           ;!
  1244                           ;!    i2C_ReceiveData@recievedBytesPointer	PTR unsigned char  size(2) Largest target is 
                                 1
  1245                           ;!		 -> vl53l0x_I2C_ReceiveData@recievedData(COMRAM[1]), 
  1246                           ;!
  1247                           ;!    i2C_ReceiveData@sendBytes	PTR unsigned char  size(2) Largest target is 1
  1248                           ;!		 -> vl53l0x_I2C_ReceiveData@sendData(COMRAM[1]), 
  1249                           ;!
  1250                           
  1251                           
  1252                           ;!
  1253                           ;!Critical Paths under _main in COMRAM
  1254                           ;!
  1255                           ;!    None.
  1256                           ;!
  1257                           ;!Critical Paths under _interrupts_Event in COMRAM
  1258                           ;!
  1259                           ;!    _interrupts_Event->_vl53l0x_I2C_ReceiveData
  1260                           ;!    _vl53l0x_I2C_ReceiveData->_i2C_ReceiveData
  1261                           ;!
  1262                           ;!Critical Paths under _main in BANK0
  1263                           ;!
  1264                           ;!    None.
  1265                           ;!
  1266                           ;!Critical Paths under _interrupts_Event in BANK0
  1267                           ;!
  1268                           ;!    None.
  1269                           ;!
  1270                           ;!Critical Paths under _main in BANK1
  1271                           ;!
  1272                           ;!    None.
  1273                           ;!
  1274                           ;!Critical Paths under _interrupts_Event in BANK1
  1275                           ;!
  1276                           ;!    None.
  1277                           ;!
  1278                           ;!Critical Paths under _main in BANK2
  1279                           ;!
  1280                           ;!    None.
  1281                           ;!
  1282                           ;!Critical Paths under _interrupts_Event in BANK2
  1283                           ;!
  1284                           ;!    None.
  1285                           ;!
  1286                           ;!Critical Paths under _main in BANK3
  1287                           ;!
  1288                           ;!    None.
  1289                           ;!
  1290                           ;!Critical Paths under _interrupts_Event in BANK3
  1291                           ;!
  1292                           ;!    None.
  1293                           ;!
  1294                           ;!Critical Paths under _main in BANK4
  1295                           ;!
  1296                           ;!    None.
  1297                           ;!
  1298                           ;!Critical Paths under _interrupts_Event in BANK4
  1299                           ;!
  1300                           ;!    None.
  1301                           ;!
  1302                           ;!Critical Paths under _main in BANK5
  1303                           ;!
  1304                           ;!    None.
  1305                           ;!
  1306                           ;!Critical Paths under _interrupts_Event in BANK5
  1307                           ;!
  1308                           ;!    None.
  1309                           ;!
  1310                           ;!Critical Paths under _main in BANK6
  1311                           ;!
  1312                           ;!    None.
  1313                           ;!
  1314                           ;!Critical Paths under _interrupts_Event in BANK6
  1315                           ;!
  1316                           ;!    None.
  1317                           ;!
  1318                           ;!Critical Paths under _main in BANK7
  1319                           ;!
  1320                           ;!    None.
  1321                           ;!
  1322                           ;!Critical Paths under _interrupts_Event in BANK7
  1323                           ;!
  1324                           ;!    None.
  1325                           
  1326 ;;
  1327 ;;Main: autosize = 0, tempsize = 0, incstack = 0, save=0
  1328 ;;
  1329                           
  1330                           ;!
  1331                           ;!Call Graph Tables:
  1332                           ;!
  1333                           ;! ---------------------------------------------------------------------------------
  1334                           ;! (Depth) Function   	        Calls       Base Space   Used Autos Params    Refs
  1335                           ;! ---------------------------------------------------------------------------------
  1336                           ;! (0) _main                                                 0     0      0       0
  1337                           ;!                          _i2C_Setup
  1338                           ;!                   _interrupts_Setup
  1339                           ;!                      _vl5310x_Setup
  1340                           ;! ---------------------------------------------------------------------------------
  1341                           ;! (1) _vl5310x_Setup                                        0     0      0       0
  1342                           ;! ---------------------------------------------------------------------------------
  1343                           ;! (1) _interrupts_Setup                                     0     0      0       0
  1344                           ;! ---------------------------------------------------------------------------------
  1345                           ;! (1) _i2C_Setup                                            0     0      0       0
  1346                           ;! ---------------------------------------------------------------------------------
  1347                           ;! Estimated maximum stack depth 1
  1348                           ;! ---------------------------------------------------------------------------------
  1349                           ;! (Depth) Function   	        Calls       Base Space   Used Autos Params    Refs
  1350                           ;! ---------------------------------------------------------------------------------
  1351                           ;! (2) _interrupts_Event                                     7     7      0     789
  1352                           ;!                                             13 COMRAM     7     7      0
  1353                           ;!            _vl53l0x_I2C_ReceiveData
  1354                           ;! ---------------------------------------------------------------------------------
  1355                           ;! (3) _vl53l0x_I2C_ReceiveData                              4     3      1     720
  1356                           ;!                                              9 COMRAM     4     3      1
  1357                           ;!                    _i2C_ReceiveData
  1358                           ;! ---------------------------------------------------------------------------------
  1359                           ;! (4) _i2C_ReceiveData                                      9     3      6     528
  1360                           ;!                                              0 COMRAM     9     3      6
  1361                           ;!                  _i2C_RepeatedStart
  1362                           ;!                          _i2C_Start
  1363                           ;!                           _i2C_Stop
  1364                           ;! ---------------------------------------------------------------------------------
  1365                           ;! (5) _i2C_Stop                                             0     0      0       0
  1366                           ;! ---------------------------------------------------------------------------------
  1367                           ;! (5) _i2C_Start                                            0     0      0       0
  1368                           ;!                           _i2C_Wait
  1369                           ;! ---------------------------------------------------------------------------------
  1370                           ;! (5) _i2C_RepeatedStart                                    0     0      0       0
  1371                           ;!                           _i2C_Wait
  1372                           ;! ---------------------------------------------------------------------------------
  1373                           ;! (6) _i2C_Wait                                             0     0      0       0
  1374                           ;! ---------------------------------------------------------------------------------
  1375                           ;! Estimated maximum stack depth 6
  1376                           ;! ---------------------------------------------------------------------------------
  1377                           ;!
  1378                           ;! Call Graph Graphs:
  1379                           ;!
  1380                           ;! _main (ROOT)
  1381                           ;!   _i2C_Setup
  1382                           ;!   _interrupts_Setup
  1383                           ;!   _vl5310x_Setup
  1384                           ;!
  1385                           ;! _interrupts_Event (ROOT)
  1386                           ;!   _vl53l0x_I2C_ReceiveData
  1387                           ;!     _i2C_ReceiveData
  1388                           ;!       _i2C_RepeatedStart
  1389                           ;!         _i2C_Wait
  1390                           ;!       _i2C_Start
  1391                           ;!         _i2C_Wait
  1392                           ;!       _i2C_Stop
  1393                           ;!
  1394                           
  1395                           ;! Address spaces:
  1396                           
  1397                           ;!Name               Size   Autos  Total    Cost      Usage
  1398                           ;!BIGRAM             7FF      0       0      21        0.0%
  1399                           ;!EEDATA             100      0       0       0        0.0%
  1400                           ;!BITBANK7           100      0       0      18        0.0%
  1401                           ;!BANK7              100      0       0      19        0.0%
  1402                           ;!BITBANK6           100      0       0      16        0.0%
  1403                           ;!BANK6              100      0       0      17        0.0%
  1404                           ;!BITBANK5           100      0       0      14        0.0%
  1405                           ;!BANK5              100      0       0      15        0.0%
  1406                           ;!BITBANK4           100      0       0      12        0.0%
  1407                           ;!BANK4              100      0       0      13        0.0%
  1408                           ;!BITBANK3           100      0       0      10        0.0%
  1409                           ;!BANK3              100      0       0      11        0.0%
  1410                           ;!BITBANK2           100      0       0       8        0.0%
  1411                           ;!BANK2              100      0       0       9        0.0%
  1412                           ;!BITBANK1           100      0       0       6        0.0%
  1413                           ;!BANK1              100      0       0       7        0.0%
  1414                           ;!BITBANK0            A0      0       0       4        0.0%
  1415                           ;!BANK0               A0      0       0       5        0.0%
  1416                           ;!BITCOMRAM           5E      0       0       0        0.0%
  1417                           ;!COMRAM              5E     14      18       1       25.5%
  1418                           ;!BITSFR               0      0       0     200        0.0%
  1419                           ;!SFR                  0      0       0     200        0.0%
  1420                           ;!STACK                0      0       0       2        0.0%
  1421                           ;!NULL                 0      0       0       0        0.0%
  1422                           ;!ABS                  0      0      18      20        0.0%
  1423                           ;!DATA                 0      0      18       3        0.0%
  1424                           ;!CODE                 0      0       0       0        0.0%
  1425                           
  1426                           	global	_main
  1427                           
  1428 ;; *************** function _main *****************
  1429 ;; Defined at:
  1430 ;;		line 58 in file "main.c"
  1431 ;; Parameters:    Size  Location     Type
  1432 ;;		None
  1433 ;; Auto vars:     Size  Location     Type
  1434 ;;		None
  1435 ;; Return value:  Size  Location     Type
  1436 ;;                  1    wreg      void 
  1437 ;; Registers used:
  1438 ;;		wreg, status,2, cstack
  1439 ;; Tracked objects:
  1440 ;;		On entry : 0/0
  1441 ;;		On exit  : 0/0
  1442 ;;		Unchanged: 0/0
  1443 ;; Data sizes:     COMRAM   BANK0   BANK1   BANK2   BANK3   BANK4   BANK5   BANK6   BANK7
  1444 ;;      Params:         0       0       0       0       0       0       0       0       0
  1445 ;;      Locals:         0       0       0       0       0       0       0       0       0
  1446 ;;      Temps:          0       0       0       0       0       0       0       0       0
  1447 ;;      Totals:         0       0       0       0       0       0       0       0       0
  1448 ;;Total ram usage:        0 bytes
  1449 ;; Hardware stack levels required when called:    6
  1450 ;; This function calls:
  1451 ;;		_i2C_Setup
  1452 ;;		_interrupts_Setup
  1453 ;;		_vl5310x_Setup
  1454 ;; This function is called by:
  1455 ;;		Startup code after reset
  1456 ;; This function uses a non-reentrant model
  1457 ;;
  1458                           psect	text0,class=CODE,space=0,reloc=2,group=0
  1459                           	file	"main.c"
  1460                           	line	58
  1461                           global __ptext0
  1462                           __ptext0:
  1463  0005A4                     psect	text0
  1464                           	file	"main.c"
  1465                           	line	58
  1466                           	global	__size_of_main
  1467                           	__size_of_main	equ	__end_of_main-_main
  1468  0000                     	
  1469                           _main:
  1470  0005A4                     ;incstack = 0
  1471                           	opt	stack 25
  1472                           	line	59
  1473                           	
  1474                           l958:
  1475  0005A4                     ;main.c: 59:     interrupts_Setup();
  1476                           	call	_interrupts_Setup	;wreg free
  1477  0005A4  EC4C  F002         	line	60
  1478                           	
  1479                           l960:
  1480  0005A8                     ;main.c: 60:     i2C_Setup();
  1481                           	call	_i2C_Setup	;wreg free
  1482  0005A8  ECBB  F002         	line	61
  1483                           	
  1484                           l962:
  1485  0005AC                     ;main.c: 61:     vl5310x_Setup();
  1486                           	call	_vl5310x_Setup	;wreg free
  1487  0005AC  EC17  F003         	line	65
  1488                           	
  1489                           l964:
  1490  0005B0                     ;main.c: 65:     T0CONbits.TMR0ON = 1;
  1491                           	bsf	((c:4053)),c,7	;volatile
  1492  0005B0  8ED5               	line	66
  1493                           	
  1494                           l966:
  1495  0005B2                     ;main.c: 66:     T0CONbits.T08BIT = 0;
  1496                           	bcf	((c:4053)),c,6	;volatile
  1497  0005B2  9CD5               	line	67
  1498                           	
  1499                           l968:
  1500  0005B4                     ;main.c: 67:     T0CONbits.T0CS = 0;
  1501                           	bcf	((c:4053)),c,5	;volatile
  1502  0005B4  9AD5               	line	68
  1503                           	
  1504                           l970:
  1505  0005B6                     ;main.c: 68:     T0CONbits.T0SE = 1;
  1506                           	bsf	((c:4053)),c,4	;volatile
  1507  0005B6  88D5               	line	69
  1508                           	
  1509                           l972:
  1510  0005B8                     ;main.c: 69:     T0CONbits.PSA = 0;
  1511                           	bcf	((c:4053)),c,3	;volatile
  1512  0005B8  96D5               	line	70
  1513                           	
  1514                           l974:
  1515  0005BA                     ;main.c: 70:     T0CONbits.T0PS2 = 1;
  1516                           	bsf	((c:4053)),c,2	;volatile
  1517  0005BA  84D5               	line	71
  1518                           	
  1519                           l976:
  1520  0005BC                     ;main.c: 71:     T0CONbits.T0PS1 = 1;
  1521                           	bsf	((c:4053)),c,1	;volatile
  1522  0005BC  82D5               	line	72
  1523                           	
  1524                           l978:
  1525  0005BE                     ;main.c: 72:     T0CONbits.T0PS0 = 1;
  1526                           	bsf	((c:4053)),c,0	;volatile
  1527  0005BE  80D5               	line	75
  1528                           	
  1529                           l980:
  1530  0005C0                     ;main.c: 75:     TRISBbits.TRISB7 = 0;
  1531                           	bcf	((c:3987)),c,7	;volatile
  1532  0005C0  9E93               	line	77
  1533                           ;main.c: 77:     while(1);
  1534                           	
  1535                           l15:
  1536  0005C2                     	
  1537                           l16:
  1538  0005C2                     	goto	l15
  1539  0005C2  EFE1  F002         	
  1540                           l17:
  1541  0005C6                     	line	80
  1542                           ;main.c: 79:     return;
  1543                           	
  1544                           l18:
  1545  0005C6                     	global	start
  1546                           	goto	start
  1547  0005C6  EF07  F000         	opt stack 0
  1548                           GLOBAL	__end_of_main
  1549                           	__end_of_main:
  1550  0005CA                     	signat	_main,89
  1551                           	global	_vl5310x_Setup
  1552                           
  1553 ;; *************** function _vl5310x_Setup *****************
  1554 ;; Defined at:
  1555 ;;		line 36 in file "vL53L0X.c"
  1556 ;; Parameters:    Size  Location     Type
  1557 ;;		None
  1558 ;; Auto vars:     Size  Location     Type
  1559 ;;		None
  1560 ;; Return value:  Size  Location     Type
  1561 ;;                  1    wreg      void 
  1562 ;; Registers used:
  1563 ;;		None
  1564 ;; Tracked objects:
  1565 ;;		On entry : 0/0
  1566 ;;		On exit  : 0/0
  1567 ;;		Unchanged: 0/0
  1568 ;; Data sizes:     COMRAM   BANK0   BANK1   BANK2   BANK3   BANK4   BANK5   BANK6   BANK7
  1569 ;;      Params:         0       0       0       0       0       0       0       0       0
  1570 ;;      Locals:         0       0       0       0       0       0       0       0       0
  1571 ;;      Temps:          0       0       0       0       0       0       0       0       0
  1572 ;;      Totals:         0       0       0       0       0       0       0       0       0
  1573 ;;Total ram usage:        0 bytes
  1574 ;; Hardware stack levels used:    1
  1575 ;; Hardware stack levels required when called:    5
  1576 ;; This function calls:
  1577 ;;		Nothing
  1578 ;; This function is called by:
  1579 ;;		_main
  1580 ;; This function uses a non-reentrant model
  1581 ;;
  1582                           psect	text1,class=CODE,space=0,reloc=2,group=0
  1583                           	file	"vL53L0X.c"
  1584                           	line	36
  1585                           global __ptext1
  1586                           __ptext1:
  1587  00062E                     psect	text1
  1588                           	file	"vL53L0X.c"
  1589                           	line	36
  1590                           	global	__size_of_vl5310x_Setup
  1591                           	__size_of_vl5310x_Setup	equ	__end_of_vl5310x_Setup-_vl5310x_Setup
  1592  0000                     	
  1593                           _vl5310x_Setup:
  1594  00062E                     ;incstack = 0
  1595                           	opt	stack 25
  1596                           	line	38
  1597                           	
  1598                           l190:
  1599  00062E                     	return	;funcret
  1600  00062E  0012               	opt stack 0
  1601                           GLOBAL	__end_of_vl5310x_Setup
  1602                           	__end_of_vl5310x_Setup:
  1603  000630                     	signat	_vl5310x_Setup,89
  1604                           	global	_interrupts_Setup
  1605                           
  1606 ;; *************** function _interrupts_Setup *****************
  1607 ;; Defined at:
  1608 ;;		line 19 in file "interrupts.c"
  1609 ;; Parameters:    Size  Location     Type
  1610 ;;		None
  1611 ;; Auto vars:     Size  Location     Type
  1612 ;;		None
  1613 ;; Return value:  Size  Location     Type
  1614 ;;                  1    wreg      void 
  1615 ;; Registers used:
  1616 ;;		None
  1617 ;; Tracked objects:
  1618 ;;		On entry : 0/0
  1619 ;;		On exit  : 0/0
  1620 ;;		Unchanged: 0/0
  1621 ;; Data sizes:     COMRAM   BANK0   BANK1   BANK2   BANK3   BANK4   BANK5   BANK6   BANK7
  1622 ;;      Params:         0       0       0       0       0       0       0       0       0
  1623 ;;      Locals:         0       0       0       0       0       0       0       0       0
  1624 ;;      Temps:          0       0       0       0       0       0       0       0       0
  1625 ;;      Totals:         0       0       0       0       0       0       0       0       0
  1626 ;;Total ram usage:        0 bytes
  1627 ;; Hardware stack levels used:    1
  1628 ;; Hardware stack levels required when called:    5
  1629 ;; This function calls:
  1630 ;;		Nothing
  1631 ;; This function is called by:
  1632 ;;		_main
  1633 ;; This function uses a non-reentrant model
  1634 ;;
  1635                           psect	text2,class=CODE,space=0,reloc=2,group=0
  1636                           	file	"interrupts.c"
  1637                           	line	19
  1638                           global __ptext2
  1639                           __ptext2:
  1640  000498                     psect	text2
  1641                           	file	"interrupts.c"
  1642                           	line	19
  1643                           	global	__size_of_interrupts_Setup
  1644                           	__size_of_interrupts_Setup	equ	__end_of_interrupts_Setup-_interrupts_Setup
  1645  0000                     	
  1646                           _interrupts_Setup:
  1647  000498                     ;incstack = 0
  1648                           	opt	stack 25
  1649                           	line	22
  1650                           	
  1651                           l926:
  1652  000498                     ;interrupts.c: 22:     INTCONbits.GIE = 1;
  1653                           	bsf	((c:4082)),c,7	;volatile
  1654  000498  8EF2               	line	23
  1655                           ;interrupts.c: 23:     INTCONbits.PEIE = 0;
  1656                           	bcf	((c:4082)),c,6	;volatile
  1657  00049A  9CF2               	line	24
  1658                           ;interrupts.c: 24:     INTCONbits.TMR0IE = 1;
  1659                           	bsf	((c:4082)),c,5	;volatile
  1660  00049C  8AF2               	line	25
  1661                           ;interrupts.c: 25:     INTCONbits.INT0IE = 0;
  1662                           	bcf	((c:4082)),c,4	;volatile
  1663  00049E  98F2               	line	26
  1664                           ;interrupts.c: 26:     INTCONbits.RBIE = 0;
  1665                           	bcf	((c:4082)),c,3	;volatile
  1666  0004A0  96F2               	line	29
  1667                           ;interrupts.c: 29:     INTCON2bits.RBPU = 1;
  1668                           	bsf	((c:4081)),c,7	;volatile
  1669  0004A2  8EF1               	line	30
  1670                           ;interrupts.c: 30:     INTCON2bits.INTEDG0 = 1;
  1671                           	bsf	((c:4081)),c,6	;volatile
  1672  0004A4  8CF1               	line	31
  1673                           ;interrupts.c: 31:     INTCON2bits.INTEDG1 = 1;
  1674                           	bsf	((c:4081)),c,5	;volatile
  1675  0004A6  8AF1               	line	32
  1676                           ;interrupts.c: 32:     INTCON2bits.INTEDG2 = 1;
  1677                           	bsf	((c:4081)),c,4	;volatile
  1678  0004A8  88F1               	line	33
  1679                           ;interrupts.c: 33:     INTCON2bits.TMR0IP = 1;
  1680                           	bsf	((c:4081)),c,2	;volatile
  1681  0004AA  84F1               	line	34
  1682                           ;interrupts.c: 34:     INTCON2bits.RBIP = 1;
  1683                           	bsf	((c:4081)),c,0	;volatile
  1684  0004AC  80F1               	line	37
  1685                           ;interrupts.c: 37:     INTCON3bits.INT2IP = 1;
  1686                           	bsf	((c:4080)),c,7	;volatile
  1687  0004AE  8EF0               	line	38
  1688                           ;interrupts.c: 38:     INTCON3bits.INT1IP = 1;
  1689                           	bsf	((c:4080)),c,6	;volatile
  1690  0004B0  8CF0               	line	39
  1691                           ;interrupts.c: 39:     INTCON3bits.INT2IE = 0;
  1692                           	bcf	((c:4080)),c,4	;volatile
  1693  0004B2  98F0               	line	43
  1694                           ;interrupts.c: 43:     PIE1bits.ADIE = 0;
  1695                           	bcf	((c:3997)),c,6	;volatile
  1696  0004B4  9C9D               	line	44
  1697                           ;interrupts.c: 44:     PIE1bits.RCIE = 0;
  1698                           	bcf	((c:3997)),c,5	;volatile
  1699  0004B6  9A9D               	line	45
  1700                           ;interrupts.c: 45:     PIE1bits.TXIE = 0;
  1701                           	bcf	((c:3997)),c,4	;volatile
  1702  0004B8  989D               	line	46
  1703                           ;interrupts.c: 46:     PIE1bits.SSPIE = 0;
  1704                           	bcf	((c:3997)),c,3	;volatile
  1705  0004BA  969D               	line	47
  1706                           ;interrupts.c: 47:     PIE1bits.CCP1IE = 0;
  1707                           	bcf	((c:3997)),c,2	;volatile
  1708  0004BC  949D               	line	48
  1709                           ;interrupts.c: 48:     PIE1bits.TMR2IE = 0;
  1710                           	bcf	((c:3997)),c,1	;volatile
  1711  0004BE  929D               	line	49
  1712                           ;interrupts.c: 49:     PIE1bits.TMR1IE = 0;
  1713                           	bcf	((c:3997)),c,0	;volatile
  1714  0004C0  909D               	line	52
  1715                           ;interrupts.c: 52:     PIE2bits.OSCFIE = 0;
  1716                           	bcf	((c:4000)),c,7	;volatile
  1717  0004C2  9EA0               	line	53
  1718                           ;interrupts.c: 53:     PIE2bits.CMIE = 0;
  1719                           	bcf	((c:4000)),c,6	;volatile
  1720  0004C4  9CA0               	line	54
  1721                           ;interrupts.c: 54:     PIE2bits.USBIE = 0;
  1722                           	bcf	((c:4000)),c,5	;volatile
  1723  0004C6  9AA0               	line	55
  1724                           ;interrupts.c: 55:     PIE2bits.EEIE = 0;
  1725                           	bcf	((c:4000)),c,4	;volatile
  1726  0004C8  98A0               	line	56
  1727                           ;interrupts.c: 56:     PIE2bits.BCLIE = 0;
  1728                           	bcf	((c:4000)),c,3	;volatile
  1729  0004CA  96A0               	line	57
  1730                           ;interrupts.c: 57:     PIE2bits.HLVDIE = 0;
  1731                           	bcf	((c:4000)),c,2	;volatile
  1732  0004CC  94A0               	line	58
  1733                           ;interrupts.c: 58:     PIE2bits.TMR3IE = 0;
  1734                           	bcf	((c:4000)),c,1	;volatile
  1735  0004CE  92A0               	line	59
  1736                           ;interrupts.c: 59:     PIE2bits.CCP2IE = 0;
  1737                           	bcf	((c:4000)),c,0	;volatile
  1738  0004D0  90A0               	line	65
  1739                           ;interrupts.c: 65:     IPR1bits.ADIP = 1;
  1740                           	bsf	((c:3999)),c,6	;volatile
  1741  0004D2  8C9F               	line	66
  1742                           ;interrupts.c: 66:     IPR1bits.RCIP = 1;
  1743                           	bsf	((c:3999)),c,5	;volatile
  1744  0004D4  8A9F               	line	67
  1745                           ;interrupts.c: 67:     IPR1bits.TXIP = 1;
  1746                           	bsf	((c:3999)),c,4	;volatile
  1747  0004D6  889F               	line	68
  1748                           ;interrupts.c: 68:     IPR1bits.SSPIP = 1;
  1749                           	bsf	((c:3999)),c,3	;volatile
  1750  0004D8  869F               	line	69
  1751                           ;interrupts.c: 69:     IPR1bits.CCP1IP = 1;
  1752                           	bsf	((c:3999)),c,2	;volatile
  1753  0004DA  849F               	line	70
  1754                           ;interrupts.c: 70:     IPR1bits.TMR2IP = 1;
  1755                           	bsf	((c:3999)),c,1	;volatile
  1756  0004DC  829F               	line	71
  1757                           ;interrupts.c: 71:     IPR1bits.TMR1IP = 1;
  1758                           	bsf	((c:3999)),c,0	;volatile
  1759  0004DE  809F               	line	74
  1760                           ;interrupts.c: 74:     IPR2bits.OSCFIP = 1;
  1761                           	bsf	((c:4002)),c,7	;volatile
  1762  0004E0  8EA2               	line	75
  1763                           ;interrupts.c: 75:     IPR2bits.CMIP = 1;
  1764                           	bsf	((c:4002)),c,6	;volatile
  1765  0004E2  8CA2               	line	76
  1766                           ;interrupts.c: 76:     IPR2bits.USBIP = 1;
  1767                           	bsf	((c:4002)),c,5	;volatile
  1768  0004E4  8AA2               	line	77
  1769                           ;interrupts.c: 77:     IPR2bits.EEIP = 1;
  1770                           	bsf	((c:4002)),c,4	;volatile
  1771  0004E6  88A2               	line	78
  1772                           ;interrupts.c: 78:     IPR2bits.BCLIP = 1;
  1773                           	bsf	((c:4002)),c,3	;volatile
  1774  0004E8  86A2               	line	79
  1775                           ;interrupts.c: 79:     IPR2bits.HLVDIP = 1;
  1776                           	bsf	((c:4002)),c,2	;volatile
  1777  0004EA  84A2               	line	80
  1778                           ;interrupts.c: 80:     IPR2bits.TMR3IP = 1;
  1779                           	bsf	((c:4002)),c,1	;volatile
  1780  0004EC  82A2               	line	81
  1781                           ;interrupts.c: 81:     IPR2bits.CCP2IP = 1;
  1782                           	bsf	((c:4002)),c,0	;volatile
  1783  0004EE  80A2               	line	82
  1784                           	
  1785                           l43:
  1786  0004F0                     	return	;funcret
  1787  0004F0  0012               	opt stack 0
  1788                           GLOBAL	__end_of_interrupts_Setup
  1789                           	__end_of_interrupts_Setup:
  1790  0004F2                     	signat	_interrupts_Setup,89
  1791                           	global	_i2C_Setup
  1792                           
  1793 ;; *************** function _i2C_Setup *****************
  1794 ;; Defined at:
  1795 ;;		line 17 in file "i2C.c"
  1796 ;; Parameters:    Size  Location     Type
  1797 ;;		None
  1798 ;; Auto vars:     Size  Location     Type
  1799 ;;		None
  1800 ;; Return value:  Size  Location     Type
  1801 ;;                  1    wreg      void 
  1802 ;; Registers used:
  1803 ;;		wreg, status,2
  1804 ;; Tracked objects:
  1805 ;;		On entry : 0/0
  1806 ;;		On exit  : 0/0
  1807 ;;		Unchanged: 0/0
  1808 ;; Data sizes:     COMRAM   BANK0   BANK1   BANK2   BANK3   BANK4   BANK5   BANK6   BANK7
  1809 ;;      Params:         0       0       0       0       0       0       0       0       0
  1810 ;;      Locals:         0       0       0       0       0       0       0       0       0
  1811 ;;      Temps:          0       0       0       0       0       0       0       0       0
  1812 ;;      Totals:         0       0       0       0       0       0       0       0       0
  1813 ;;Total ram usage:        0 bytes
  1814 ;; Hardware stack levels used:    1
  1815 ;; Hardware stack levels required when called:    5
  1816 ;; This function calls:
  1817 ;;		Nothing
  1818 ;; This function is called by:
  1819 ;;		_main
  1820 ;; This function uses a non-reentrant model
  1821 ;;
  1822                           psect	text3,class=CODE,space=0,reloc=2,group=0
  1823                           	file	"i2C.c"
  1824                           	line	17
  1825                           global __ptext3
  1826                           __ptext3:
  1827  000576                     psect	text3
  1828                           	file	"i2C.c"
  1829                           	line	17
  1830                           	global	__size_of_i2C_Setup
  1831                           	__size_of_i2C_Setup	equ	__end_of_i2C_Setup-_i2C_Setup
  1832  0000                     	
  1833                           _i2C_Setup:
  1834  000576                     ;incstack = 0
  1835                           	opt	stack 25
  1836                           	line	25
  1837                           	
  1838                           l928:
  1839  000576                     ;i2C.c: 25:     TRISBbits.TRISB0 = 1;
  1840                           	bsf	((c:3987)),c,0	;volatile
  1841  000576  8093               	line	26
  1842                           ;i2C.c: 26:     TRISBbits.TRISB1 = 1;
  1843                           	bsf	((c:3987)),c,1	;volatile
  1844  000578  8293               	line	37
  1845                           ;i2C.c: 37:     SSPSTATbits.SMP = 0;
  1846                           	bcf	((c:4039)),c,7	;volatile
  1847  00057A  9EC7               	line	38
  1848                           ;i2C.c: 38:     SSPSTATbits.CKE = 0;
  1849                           	bcf	((c:4039)),c,6	;volatile
  1850  00057C  9CC7               	line	47
  1851                           ;i2C.c: 47:     SSPCON1bits.WCOL = 0;
  1852                           	bcf	((c:4038)),c,7	;volatile
  1853  00057E  9EC6               	line	48
  1854                           ;i2C.c: 48:     SSPCON1bits.SSPOV = 0;
  1855                           	bcf	((c:4038)),c,6	;volatile
  1856  000580  9CC6               	line	49
  1857                           ;i2C.c: 49:     SSPCON1bits.SSPEN = 1;
  1858                           	bsf	((c:4038)),c,5	;volatile
  1859  000582  8AC6               	line	50
  1860                           ;i2C.c: 50:     SSPCON1bits.CKP = 1;
  1861                           	bsf	((c:4038)),c,4	;volatile
  1862  000584  88C6               	line	51
  1863                           ;i2C.c: 51:     SSPCON1bits.SSPM3 = 1;
  1864                           	bsf	((c:4038)),c,3	;volatile
  1865  000586  86C6               	line	52
  1866                           ;i2C.c: 52:     SSPCON1bits.SSPM2 = 0;
  1867                           	bcf	((c:4038)),c,2	;volatile
  1868  000588  94C6               	line	53
  1869                           ;i2C.c: 53:     SSPCON1bits.SSPM1 = 0;
  1870                           	bcf	((c:4038)),c,1	;volatile
  1871  00058A  92C6               	line	54
  1872                           ;i2C.c: 54:     SSPCON1bits.SSPM0 = 0;
  1873                           	bcf	((c:4038)),c,0	;volatile
  1874  00058C  90C6               	line	58
  1875                           ;i2C.c: 58:     SSPCON2bits.GCEN = 0;
  1876                           	bcf	((c:4037)),c,7	;volatile
  1877  00058E  9EC5               	line	59
  1878                           ;i2C.c: 59:     SSPCON2bits.ACKSTAT = 0;
  1879                           	bcf	((c:4037)),c,6	;volatile
  1880  000590  9CC5               	line	60
  1881                           ;i2C.c: 60:     SSPCON2bits.ACKDT = 0;
  1882                           	bcf	((c:4037)),c,5	;volatile
  1883  000592  9AC5               	line	61
  1884                           ;i2C.c: 61:     SSPCON2bits.ACKEN = 0;
  1885                           	bcf	((c:4037)),c,4	;volatile
  1886  000594  98C5               	line	62
  1887                           ;i2C.c: 62:     SSPCON2bits.RCEN = 0;
  1888                           	bcf	((c:4037)),c,3	;volatile
  1889  000596  96C5               	line	63
  1890                           ;i2C.c: 63:     SSPCON2bits.PEN = 0;
  1891                           	bcf	((c:4037)),c,2	;volatile
  1892  000598  94C5               	line	64
  1893                           ;i2C.c: 64:     SSPCON2bits.RSEN = 0;
  1894                           	bcf	((c:4037)),c,1	;volatile
  1895  00059A  92C5               	line	65
  1896                           ;i2C.c: 65:     SSPCON2bits.SEN = 0;
  1897                           	bcf	((c:4037)),c,0	;volatile
  1898  00059C  90C5               	line	68
  1899                           	
  1900                           l930:
  1901  00059E                     ;i2C.c: 68:     SSPADD = 0x27;
  1902                           	movlw	low(027h)
  1903  00059E  0E27               	movwf	((c:4040)),c	;volatile
  1904  0005A0  6EC8               	line	69
  1905                           	
  1906                           l106:
  1907  0005A2                     	return	;funcret
  1908  0005A2  0012               	opt stack 0
  1909                           GLOBAL	__end_of_i2C_Setup
  1910                           	__end_of_i2C_Setup:
  1911  0005A4                     	signat	_i2C_Setup,89
  1912                           	global	_interrupts_Event
  1913                           
  1914 ;; *************** function _interrupts_Event *****************
  1915 ;; Defined at:
  1916 ;;		line 90 in file "interrupts.c"
  1917 ;; Parameters:    Size  Location     Type
  1918 ;;		None
  1919 ;; Auto vars:     Size  Location     Type
  1920 ;;  value           1   19[COMRAM] unsigned char 
  1921 ;;  device_regis    1   18[COMRAM] unsigned char 
  1922 ;;  slave_addres    1   17[COMRAM] unsigned char 
  1923 ;; Return value:  Size  Location     Type
  1924 ;;                  1    wreg      void 
  1925 ;; Registers used:
  1926 ;;		wreg, fsr2l, fsr2h, status,2, status,0, prodl, prodh, cstack
  1927 ;; Tracked objects:
  1928 ;;		On entry : 0/0
  1929 ;;		On exit  : 0/0
  1930 ;;		Unchanged: 0/0
  1931 ;; Data sizes:     COMRAM   BANK0   BANK1   BANK2   BANK3   BANK4   BANK5   BANK6   BANK7
  1932 ;;      Params:         0       0       0       0       0       0       0       0       0
  1933 ;;      Locals:         3       0       0       0       0       0       0       0       0
  1934 ;;      Temps:          4       0       0       0       0       0       0       0       0
  1935 ;;      Totals:         7       0       0       0       0       0       0       0       0
  1936 ;;Total ram usage:        7 bytes
  1937 ;; Hardware stack levels used:    1
  1938 ;; Hardware stack levels required when called:    4
  1939 ;; This function calls:
  1940 ;;		_vl53l0x_I2C_ReceiveData
  1941 ;; This function is called by:
  1942 ;;		Interrupt level 2
  1943 ;; This function uses a non-reentrant model
  1944 ;;
  1945                           psect	intcode,class=CODE,space=0,reloc=2
  1946                           global __pintcode
  1947                           __pintcode:
  1948  000008                     psect	intcode
  1949                           	file	"interrupts.c"
  1950                           	line	90
  1951                           	global	__size_of_interrupts_Event
  1952                           	__size_of_interrupts_Event	equ	__end_of_interrupts_Event-_interrupts_Event
  1953  0000                     	
  1954                           _interrupts_Event:
  1955  000008                     ;incstack = 0
  1956                           	opt	stack 25
  1957                           	bsf int$flags,1,c ;set compiler interrupt flag (level 2)
  1958  000008  8219               	global	int_func
  1959                           	call	int_func,f	;refresh shadow registers
  1960  00000A  ED09  F000         psect	intcode_body,class=CODE,space=0,reloc=2
  1961                           global __pintcode_body
  1962                           __pintcode_body:
  1963  000012                     int_func:
  1964  000012                     
  1965                           	pop	; remove dummy address from shadow register refresh
  1966  000012  0006               	movff	fsr2l+0,??_interrupts_Event+0
  1967  000014  CFD9 F00E          	movff	fsr2h+0,??_interrupts_Event+1
  1968  000018  CFDA F00F          	movff	prodl+0,??_interrupts_Event+2
  1969  00001C  CFF3 F010          	movff	prodh+0,??_interrupts_Event+3
  1970  000020  CFF4 F011          	line	94
  1971                           	
  1972                           i2l1122:
  1973  000024                     ;interrupts.c: 94:     if (INTCONbits.TMR0IE && INTCONbits.TMR0IF == 1) {
  1974                           	btfss	((c:4082)),c,5	;volatile
  1975  000024  AAF2               	goto	i2u75_41
  1976  000026  EF17  F000         	goto	i2u75_40
  1977  00002A  EF19  F000         i2u75_41:
  1978  00002E                     	goto	i2l48
  1979  00002E  EF39  F000         i2u75_40:
  1980  000032                     	
  1981                           i2l1124:
  1982  000032                     	btfss	((c:4082)),c,2	;volatile
  1983  000032  A4F2               	goto	i2u76_41
  1984  000034  EF1E  F000         	goto	i2u76_40
  1985  000038  EF20  F000         i2u76_41:
  1986  00003C                     	goto	i2l48
  1987  00003C  EF39  F000         i2u76_40:
  1988  000040                     	line	97
  1989                           	
  1990                           i2l1126:
  1991  000040                     ;interrupts.c: 97:         unsigned char slave_address = 0x52;
  1992                           	movlw	low(052h)
  1993  000040  0E52               	movwf	((c:interrupts_Event@slave_address)),c
  1994  000042  6E12               	line	98
  1995                           ;interrupts.c: 98:         unsigned char device_register = 0x14;
  1996                           	movlw	low(014h)
  1997  000044  0E14               	movwf	((c:interrupts_Event@device_register)),c
  1998  000046  6E13               	line	99
  1999                           	
  2000                           i2l1128:
  2001  000048                     ;interrupts.c: 99:         unsigned char value = vl53l0x_I2C_ReceiveData(slave_address, 
                                 device_register);
  2002                           	movff	(c:interrupts_Event@device_register),(c:vl53l0x_I2C_ReceiveData@device_register)

  2003  000048  C013  F00A         	movf	((c:interrupts_Event@slave_address)),c,w
  2004  00004C  5012               	
  2005                           	call	_vl53l0x_I2C_ReceiveData
  2006  00004E  ECA1  F002         	movwf	((c:interrupts_Event@value)),c
  2007  000052  6E14               	line	101
  2008                           	
  2009                           i2l1130:
  2010  000054                     ;interrupts.c: 101:         if (value > 0x7F) {
  2011                           		movlw	080h-1
  2012  000054  0E7F               	cpfsgt	((c:interrupts_Event@value)),c
  2013  000056  6414               	goto	i2u77_41
  2014  000058  EF30  F000         	goto	i2u77_40
  2015  00005C  EF32  F000         
  2016                           i2u77_41:
  2017  000060                     	goto	i2l49
  2018  000060  EF35  F000         i2u77_40:
  2019  000064                     	line	102
  2020                           	
  2021                           i2l1132:
  2022  000064                     ;interrupts.c: 102:             PORTBbits.RB7 = 1;
  2023                           	bsf	((c:3969)),c,7	;volatile
  2024  000064  8E81               	line	103
  2025                           ;interrupts.c: 103:         } else {
  2026                           	goto	i2l50
  2027  000066  EF36  F000         	
  2028                           i2l49:
  2029  00006A                     	line	104
  2030                           ;interrupts.c: 104:             PORTBbits.RB7 = 0;
  2031                           	bcf	((c:3969)),c,7	;volatile
  2032  00006A  9E81               	line	105
  2033                           ;interrupts.c: 105:         }
  2034                           	
  2035                           i2l50:
  2036  00006C                     	line	107
  2037                           ;interrupts.c: 107:         INTCONbits.TMR0IF = 0;
  2038                           	bcf	((c:4082)),c,2	;volatile
  2039  00006C  94F2               	line	108
  2040                           ;interrupts.c: 108:     } else if(INTCONbits.INT0IE && INTCONbits.INT0IF == 1) {
  2041                           	goto	i2l89
  2042  00006E  EFA2  F001         	
  2043                           i2l48:
  2044  000072                     	btfss	((c:4082)),c,4	;volatile
  2045  000072  A8F2               	goto	i2u78_41
  2046  000074  EF3E  F000         	goto	i2u78_40
  2047  000078  EF40  F000         i2u78_41:
  2048  00007C                     	goto	i2l52
  2049  00007C  EF4A  F000         i2u78_40:
  2050  000080                     	
  2051                           i2l1134:
  2052  000080                     	btfss	((c:4082)),c,1	;volatile
  2053  000080  A2F2               	goto	i2u79_41
  2054  000082  EF45  F000         	goto	i2u79_40
  2055  000086  EF47  F000         i2u79_41:
  2056  00008A                     	goto	i2l52
  2057  00008A  EF4A  F000         i2u79_40:
  2058  00008E                     	line	111
  2059                           	
  2060                           i2l1136:
  2061  00008E                     ;interrupts.c: 111:         INTCONbits.INT0IF = 0;
  2062                           	bcf	((c:4082)),c,1	;volatile
  2063  00008E  92F2               	line	112
  2064                           ;interrupts.c: 112:     } else if(INTCONbits.RBIE && INTCONbits.RBIF == 1) {
  2065                           	goto	i2l89
  2066  000090  EFA2  F001         	
  2067                           i2l52:
  2068  000094                     	btfss	((c:4082)),c,3	;volatile
  2069  000094  A6F2               	goto	i2u80_41
  2070  000096  EF4F  F000         	goto	i2u80_40
  2071  00009A  EF51  F000         i2u80_41:
  2072  00009E                     	goto	i2l54
  2073  00009E  EF5B  F000         i2u80_40:
  2074  0000A2                     	
  2075                           i2l1138:
  2076  0000A2                     	btfss	((c:4082)),c,0	;volatile
  2077  0000A2  A0F2               	goto	i2u81_41
  2078  0000A4  EF56  F000         	goto	i2u81_40
  2079  0000A8  EF58  F000         i2u81_41:
  2080  0000AC                     	goto	i2l54
  2081  0000AC  EF5B  F000         i2u81_40:
  2082  0000B0                     	line	115
  2083                           	
  2084                           i2l1140:
  2085  0000B0                     ;interrupts.c: 115:         INTCONbits.RBIF = 0;
  2086                           	bcf	((c:4082)),c,0	;volatile
  2087  0000B0  90F2               	line	116
  2088                           ;interrupts.c: 116:     } else if(INTCON3bits.INT2IE && INTCON3bits.INT2IF == 1) {
  2089                           	goto	i2l89
  2090  0000B2  EFA2  F001         	
  2091                           i2l54:
  2092  0000B6                     	btfss	((c:4080)),c,4	;volatile
  2093  0000B6  A8F0               	goto	i2u82_41
  2094  0000B8  EF60  F000         	goto	i2u82_40
  2095  0000BC  EF62  F000         i2u82_41:
  2096  0000C0                     	goto	i2l56
  2097  0000C0  EF6C  F000         i2u82_40:
  2098  0000C4                     	
  2099                           i2l1142:
  2100  0000C4                     	btfss	((c:4080)),c,1	;volatile
  2101  0000C4  A2F0               	goto	i2u83_41
  2102  0000C6  EF67  F000         	goto	i2u83_40
  2103  0000CA  EF69  F000         i2u83_41:
  2104  0000CE                     	goto	i2l56
  2105  0000CE  EF6C  F000         i2u83_40:
  2106  0000D2                     	line	119
  2107                           	
  2108                           i2l1144:
  2109  0000D2                     ;interrupts.c: 119:         INTCON3bits.INT2IF = 0;
  2110                           	bcf	((c:4080)),c,1	;volatile
  2111  0000D2  92F0               	line	120
  2112                           ;interrupts.c: 120:     } else if(INTCON3bits.INT1IE && INTCON3bits.INT1IF == 1) {
  2113                           	goto	i2l89
  2114  0000D4  EFA2  F001         	
  2115                           i2l56:
  2116  0000D8                     	btfss	((c:4080)),c,3	;volatile
  2117  0000D8  A6F0               	goto	i2u84_41
  2118  0000DA  EF71  F000         	goto	i2u84_40
  2119  0000DE  EF73  F000         i2u84_41:
  2120  0000E2                     	goto	i2l58
  2121  0000E2  EF7D  F000         i2u84_40:
  2122  0000E6                     	
  2123                           i2l1146:
  2124  0000E6                     	btfss	((c:4080)),c,0	;volatile
  2125  0000E6  A0F0               	goto	i2u85_41
  2126  0000E8  EF78  F000         	goto	i2u85_40
  2127  0000EC  EF7A  F000         i2u85_41:
  2128  0000F0                     	goto	i2l58
  2129  0000F0  EF7D  F000         i2u85_40:
  2130  0000F4                     	line	123
  2131                           	
  2132                           i2l1148:
  2133  0000F4                     ;interrupts.c: 123:         INTCON3bits.INT1IF = 0;
  2134                           	bcf	((c:4080)),c,0	;volatile
  2135  0000F4  90F0               	line	124
  2136                           ;interrupts.c: 124:     } else if(PIE1bits.ADIE && PIR1bits.ADIF == 1) {
  2137                           	goto	i2l89
  2138  0000F6  EFA2  F001         	
  2139                           i2l58:
  2140  0000FA                     	btfss	((c:3997)),c,6	;volatile
  2141  0000FA  AC9D               	goto	i2u86_41
  2142  0000FC  EF82  F000         	goto	i2u86_40
  2143  000100  EF84  F000         i2u86_41:
  2144  000104                     	goto	i2l60
  2145  000104  EF8E  F000         i2u86_40:
  2146  000108                     	
  2147                           i2l1150:
  2148  000108                     	btfss	((c:3998)),c,6	;volatile
  2149  000108  AC9E               	goto	i2u87_41
  2150  00010A  EF89  F000         	goto	i2u87_40
  2151  00010E  EF8B  F000         i2u87_41:
  2152  000112                     	goto	i2l60
  2153  000112  EF8E  F000         i2u87_40:
  2154  000116                     	line	127
  2155                           	
  2156                           i2l1152:
  2157  000116                     ;interrupts.c: 127:         PIR1bits.ADIF = 0;
  2158                           	bcf	((c:3998)),c,6	;volatile
  2159  000116  9C9E               	line	128
  2160                           ;interrupts.c: 128:     } else if(PIE1bits.RCIE && PIR1bits.RCIF == 1) {
  2161                           	goto	i2l89
  2162  000118  EFA2  F001         	
  2163                           i2l60:
  2164  00011C                     	btfss	((c:3997)),c,5	;volatile
  2165  00011C  AA9D               	goto	i2u88_41
  2166  00011E  EF93  F000         	goto	i2u88_40
  2167  000122  EF95  F000         i2u88_41:
  2168  000126                     	goto	i2l62
  2169  000126  EF9F  F000         i2u88_40:
  2170  00012A                     	
  2171                           i2l1154:
  2172  00012A                     	btfss	((c:3998)),c,5	;volatile
  2173  00012A  AA9E               	goto	i2u89_41
  2174  00012C  EF9A  F000         	goto	i2u89_40
  2175  000130  EF9C  F000         i2u89_41:
  2176  000134                     	goto	i2l62
  2177  000134  EF9F  F000         i2u89_40:
  2178  000138                     	line	131
  2179                           	
  2180                           i2l1156:
  2181  000138                     ;interrupts.c: 131:         PIR1bits.RCIF = 0;
  2182                           	bcf	((c:3998)),c,5	;volatile
  2183  000138  9A9E               	line	132
  2184                           ;interrupts.c: 132:     } else if(PIE1bits.TXIE && PIR1bits.TXIF == 1) {
  2185                           	goto	i2l89
  2186  00013A  EFA2  F001         	
  2187                           i2l62:
  2188  00013E                     	btfss	((c:3997)),c,4	;volatile
  2189  00013E  A89D               	goto	i2u90_41
  2190  000140  EFA4  F000         	goto	i2u90_40
  2191  000144  EFA6  F000         i2u90_41:
  2192  000148                     	goto	i2l64
  2193  000148  EFB0  F000         i2u90_40:
  2194  00014C                     	
  2195                           i2l1158:
  2196  00014C                     	btfss	((c:3998)),c,4	;volatile
  2197  00014C  A89E               	goto	i2u91_41
  2198  00014E  EFAB  F000         	goto	i2u91_40
  2199  000152  EFAD  F000         i2u91_41:
  2200  000156                     	goto	i2l64
  2201  000156  EFB0  F000         i2u91_40:
  2202  00015A                     	line	135
  2203                           	
  2204                           i2l1160:
  2205  00015A                     ;interrupts.c: 135:         PIR1bits.TXIF = 0;
  2206                           	bcf	((c:3998)),c,4	;volatile
  2207  00015A  989E               	line	136
  2208                           ;interrupts.c: 136:     } else if(PIR1bits.SSPIF && PIR1bits.SSPIF == 1) {
  2209                           	goto	i2l89
  2210  00015C  EFA2  F001         	
  2211                           i2l64:
  2212  000160                     	btfss	((c:3998)),c,3	;volatile
  2213  000160  A69E               	goto	i2u92_41
  2214  000162  EFB5  F000         	goto	i2u92_40
  2215  000166  EFB7  F000         i2u92_41:
  2216  00016A                     	goto	i2l66
  2217  00016A  EFC1  F000         i2u92_40:
  2218  00016E                     	
  2219                           i2l1162:
  2220  00016E                     	btfss	((c:3998)),c,3	;volatile
  2221  00016E  A69E               	goto	i2u93_41
  2222  000170  EFBC  F000         	goto	i2u93_40
  2223  000174  EFBE  F000         i2u93_41:
  2224  000178                     	goto	i2l66
  2225  000178  EFC1  F000         i2u93_40:
  2226  00017C                     	line	139
  2227                           	
  2228                           i2l1164:
  2229  00017C                     ;interrupts.c: 139:         PIR1bits.SSPIF = 0;
  2230                           	bcf	((c:3998)),c,3	;volatile
  2231  00017C  969E               	line	140
  2232                           ;interrupts.c: 140:     } else if(PIE1bits.CCP1IE && PIR1bits.CCP1IF == 1) {
  2233                           	goto	i2l89
  2234  00017E  EFA2  F001         	
  2235                           i2l66:
  2236  000182                     	btfss	((c:3997)),c,2	;volatile
  2237  000182  A49D               	goto	i2u94_41
  2238  000184  EFC6  F000         	goto	i2u94_40
  2239  000188  EFC8  F000         i2u94_41:
  2240  00018C                     	goto	i2l68
  2241  00018C  EFD2  F000         i2u94_40:
  2242  000190                     	
  2243                           i2l1166:
  2244  000190                     	btfss	((c:3998)),c,2	;volatile
  2245  000190  A49E               	goto	i2u95_41
  2246  000192  EFCD  F000         	goto	i2u95_40
  2247  000196  EFCF  F000         i2u95_41:
  2248  00019A                     	goto	i2l68
  2249  00019A  EFD2  F000         i2u95_40:
  2250  00019E                     	line	143
  2251                           	
  2252                           i2l1168:
  2253  00019E                     ;interrupts.c: 143:         PIR1bits.CCP1IF = 0;
  2254                           	bcf	((c:3998)),c,2	;volatile
  2255  00019E  949E               	line	144
  2256                           ;interrupts.c: 144:     } else if(PIE1bits.TMR2IE && PIR1bits.TMR2IF == 1) {
  2257                           	goto	i2l89
  2258  0001A0  EFA2  F001         	
  2259                           i2l68:
  2260  0001A4                     	btfss	((c:3997)),c,1	;volatile
  2261  0001A4  A29D               	goto	i2u96_41
  2262  0001A6  EFD7  F000         	goto	i2u96_40
  2263  0001AA  EFD9  F000         i2u96_41:
  2264  0001AE                     	goto	i2l70
  2265  0001AE  EFE3  F000         i2u96_40:
  2266  0001B2                     	
  2267                           i2l1170:
  2268  0001B2                     	btfss	((c:3998)),c,1	;volatile
  2269  0001B2  A29E               	goto	i2u97_41
  2270  0001B4  EFDE  F000         	goto	i2u97_40
  2271  0001B8  EFE0  F000         i2u97_41:
  2272  0001BC                     	goto	i2l70
  2273  0001BC  EFE3  F000         i2u97_40:
  2274  0001C0                     	line	147
  2275                           	
  2276                           i2l1172:
  2277  0001C0                     ;interrupts.c: 147:         PIR1bits.TMR2IF = 0;
  2278                           	bcf	((c:3998)),c,1	;volatile
  2279  0001C0  929E               	line	148
  2280                           ;interrupts.c: 148:     } else if(PIE1bits.TMR1IE && PIR1bits.TMR1IF == 1) {
  2281                           	goto	i2l89
  2282  0001C2  EFA2  F001         	
  2283                           i2l70:
  2284  0001C6                     	btfss	((c:3997)),c,0	;volatile
  2285  0001C6  A09D               	goto	i2u98_41
  2286  0001C8  EFE8  F000         	goto	i2u98_40
  2287  0001CC  EFEA  F000         i2u98_41:
  2288  0001D0                     	goto	i2l72
  2289  0001D0  EFF4  F000         i2u98_40:
  2290  0001D4                     	
  2291                           i2l1174:
  2292  0001D4                     	btfss	((c:3998)),c,0	;volatile
  2293  0001D4  A09E               	goto	i2u99_41
  2294  0001D6  EFEF  F000         	goto	i2u99_40
  2295  0001DA  EFF1  F000         i2u99_41:
  2296  0001DE                     	goto	i2l72
  2297  0001DE  EFF4  F000         i2u99_40:
  2298  0001E2                     	line	151
  2299                           	
  2300                           i2l1176:
  2301  0001E2                     ;interrupts.c: 151:         PIR1bits.TMR1IF = 0;
  2302                           	bcf	((c:3998)),c,0	;volatile
  2303  0001E2  909E               	line	152
  2304                           ;interrupts.c: 152:     } else if(PIE2bits.OSCFIE && PIR2bits.OSCFIF == 1) {
  2305                           	goto	i2l89
  2306  0001E4  EFA2  F001         	
  2307                           i2l72:
  2308  0001E8                     	btfss	((c:4000)),c,7	;volatile
  2309  0001E8  AEA0               	goto	i2u100_41
  2310  0001EA  EFF9  F000         	goto	i2u100_40
  2311  0001EE  EFFB  F000         i2u100_41:
  2312  0001F2                     	goto	i2l74
  2313  0001F2  EF05  F001         i2u100_40:
  2314  0001F6                     	
  2315                           i2l1178:
  2316  0001F6                     	btfss	((c:4001)),c,7	;volatile
  2317  0001F6  AEA1               	goto	i2u101_41
  2318  0001F8  EF00  F001         	goto	i2u101_40
  2319  0001FC  EF02  F001         i2u101_41:
  2320  000200                     	goto	i2l74
  2321  000200  EF05  F001         i2u101_40:
  2322  000204                     	line	155
  2323                           	
  2324                           i2l1180:
  2325  000204                     ;interrupts.c: 155:         PIR2bits.OSCFIF = 0;
  2326                           	bcf	((c:4001)),c,7	;volatile
  2327  000204  9EA1               	line	156
  2328                           ;interrupts.c: 156:     } else if(PIE2bits.CMIE && PIR2bits.CMIF == 1) {
  2329                           	goto	i2l89
  2330  000206  EFA2  F001         	
  2331                           i2l74:
  2332  00020A                     	btfss	((c:4000)),c,6	;volatile
  2333  00020A  ACA0               	goto	i2u102_41
  2334  00020C  EF0A  F001         	goto	i2u102_40
  2335  000210  EF0C  F001         i2u102_41:
  2336  000214                     	goto	i2l76
  2337  000214  EF16  F001         i2u102_40:
  2338  000218                     	
  2339                           i2l1182:
  2340  000218                     	btfss	((c:4001)),c,6	;volatile
  2341  000218  ACA1               	goto	i2u103_41
  2342  00021A  EF11  F001         	goto	i2u103_40
  2343  00021E  EF13  F001         i2u103_41:
  2344  000222                     	goto	i2l76
  2345  000222  EF16  F001         i2u103_40:
  2346  000226                     	line	159
  2347                           	
  2348                           i2l1184:
  2349  000226                     ;interrupts.c: 159:         PIR2bits.CMIF = 0;
  2350                           	bcf	((c:4001)),c,6	;volatile
  2351  000226  9CA1               	line	160
  2352                           ;interrupts.c: 160:     } else if(PIE2bits.USBIE && PIR2bits.USBIF == 1) {
  2353                           	goto	i2l89
  2354  000228  EFA2  F001         	
  2355                           i2l76:
  2356  00022C                     	btfss	((c:4000)),c,5	;volatile
  2357  00022C  AAA0               	goto	i2u104_41
  2358  00022E  EF1B  F001         	goto	i2u104_40
  2359  000232  EF1D  F001         i2u104_41:
  2360  000236                     	goto	i2l78
  2361  000236  EF27  F001         i2u104_40:
  2362  00023A                     	
  2363                           i2l1186:
  2364  00023A                     	btfss	((c:4001)),c,5	;volatile
  2365  00023A  AAA1               	goto	i2u105_41
  2366  00023C  EF22  F001         	goto	i2u105_40
  2367  000240  EF24  F001         i2u105_41:
  2368  000244                     	goto	i2l78
  2369  000244  EF27  F001         i2u105_40:
  2370  000248                     	line	163
  2371                           	
  2372                           i2l1188:
  2373  000248                     ;interrupts.c: 163:         PIR2bits.USBIF = 0;
  2374                           	bcf	((c:4001)),c,5	;volatile
  2375  000248  9AA1               	line	164
  2376                           ;interrupts.c: 164:     } else if(PIE2bits.EEIE && PIR2bits.EEIF == 1) {
  2377                           	goto	i2l89
  2378  00024A  EFA2  F001         	
  2379                           i2l78:
  2380  00024E                     	btfss	((c:4000)),c,4	;volatile
  2381  00024E  A8A0               	goto	i2u106_41
  2382  000250  EF2C  F001         	goto	i2u106_40
  2383  000254  EF2E  F001         i2u106_41:
  2384  000258                     	goto	i2l80
  2385  000258  EF38  F001         i2u106_40:
  2386  00025C                     	
  2387                           i2l1190:
  2388  00025C                     	btfss	((c:4001)),c,4	;volatile
  2389  00025C  A8A1               	goto	i2u107_41
  2390  00025E  EF33  F001         	goto	i2u107_40
  2391  000262  EF35  F001         i2u107_41:
  2392  000266                     	goto	i2l80
  2393  000266  EF38  F001         i2u107_40:
  2394  00026A                     	line	167
  2395                           	
  2396                           i2l1192:
  2397  00026A                     ;interrupts.c: 167:         PIR2bits.EEIF = 0;
  2398                           	bcf	((c:4001)),c,4	;volatile
  2399  00026A  98A1               	line	168
  2400                           ;interrupts.c: 168:     } else if(PIE2bits.BCLIE && PIR2bits.BCLIF == 1) {
  2401                           	goto	i2l89
  2402  00026C  EFA2  F001         	
  2403                           i2l80:
  2404  000270                     	btfss	((c:4000)),c,3	;volatile
  2405  000270  A6A0               	goto	i2u108_41
  2406  000272  EF3D  F001         	goto	i2u108_40
  2407  000276  EF3F  F001         i2u108_41:
  2408  00027A                     	goto	i2l82
  2409  00027A  EF49  F001         i2u108_40:
  2410  00027E                     	
  2411                           i2l1194:
  2412  00027E                     	btfss	((c:4001)),c,3	;volatile
  2413  00027E  A6A1               	goto	i2u109_41
  2414  000280  EF44  F001         	goto	i2u109_40
  2415  000284  EF46  F001         i2u109_41:
  2416  000288                     	goto	i2l82
  2417  000288  EF49  F001         i2u109_40:
  2418  00028C                     	line	171
  2419                           	
  2420                           i2l1196:
  2421  00028C                     ;interrupts.c: 171:         PIR2bits.BCLIF = 0;
  2422                           	bcf	((c:4001)),c,3	;volatile
  2423  00028C  96A1               	line	172
  2424                           ;interrupts.c: 172:     } else if(PIE2bits.HLVDIE && PIR2bits.HLVDIF == 1) {
  2425                           	goto	i2l89
  2426  00028E  EFA2  F001         	
  2427                           i2l82:
  2428  000292                     	btfss	((c:4000)),c,2	;volatile
  2429  000292  A4A0               	goto	i2u110_41
  2430  000294  EF4E  F001         	goto	i2u110_40
  2431  000298  EF50  F001         i2u110_41:
  2432  00029C                     	goto	i2l84
  2433  00029C  EF5A  F001         i2u110_40:
  2434  0002A0                     	
  2435                           i2l1198:
  2436  0002A0                     	btfss	((c:4001)),c,2	;volatile
  2437  0002A0  A4A1               	goto	i2u111_41
  2438  0002A2  EF55  F001         	goto	i2u111_40
  2439  0002A6  EF57  F001         i2u111_41:
  2440  0002AA                     	goto	i2l84
  2441  0002AA  EF5A  F001         i2u111_40:
  2442  0002AE                     	line	175
  2443                           	
  2444                           i2l1200:
  2445  0002AE                     ;interrupts.c: 175:         PIR2bits.HLVDIF = 0;
  2446                           	bcf	((c:4001)),c,2	;volatile
  2447  0002AE  94A1               	line	176
  2448                           ;interrupts.c: 176:     } else if(PIE2bits.TMR3IE && PIR2bits.TMR3IF == 1) {
  2449                           	goto	i2l89
  2450  0002B0  EFA2  F001         	
  2451                           i2l84:
  2452  0002B4                     	btfss	((c:4000)),c,1	;volatile
  2453  0002B4  A2A0               	goto	i2u112_41
  2454  0002B6  EF5F  F001         	goto	i2u112_40
  2455  0002BA  EF61  F001         i2u112_41:
  2456  0002BE                     	goto	i2l86
  2457  0002BE  EF6B  F001         i2u112_40:
  2458  0002C2                     	
  2459                           i2l1202:
  2460  0002C2                     	btfss	((c:4001)),c,1	;volatile
  2461  0002C2  A2A1               	goto	i2u113_41
  2462  0002C4  EF66  F001         	goto	i2u113_40
  2463  0002C8  EF68  F001         i2u113_41:
  2464  0002CC                     	goto	i2l86
  2465  0002CC  EF6B  F001         i2u113_40:
  2466  0002D0                     	line	179
  2467                           	
  2468                           i2l1204:
  2469  0002D0                     ;interrupts.c: 179:         PIR2bits.TMR3IF = 0;
  2470                           	bcf	((c:4001)),c,1	;volatile
  2471  0002D0  92A1               	line	180
  2472                           ;interrupts.c: 180:     } else if(PIE2bits.CCP2IE && PIR2bits.CCP2IF == 1) {
  2473                           	goto	i2l89
  2474  0002D2  EFA2  F001         	
  2475                           i2l86:
  2476  0002D6                     	btfss	((c:4000)),c,0	;volatile
  2477  0002D6  A0A0               	goto	i2u114_41
  2478  0002D8  EF70  F001         	goto	i2u114_40
  2479  0002DC  EF72  F001         i2u114_41:
  2480  0002E0                     	goto	i2l89
  2481  0002E0  EFA2  F001         i2u114_40:
  2482  0002E4                     	
  2483                           i2l1206:
  2484  0002E4                     	btfss	((c:4001)),c,0	;volatile
  2485  0002E4  A0A1               	goto	i2u115_41
  2486  0002E6  EF77  F001         	goto	i2u115_40
  2487  0002EA  EF79  F001         i2u115_41:
  2488  0002EE                     	goto	i2l89
  2489  0002EE  EFA2  F001         i2u115_40:
  2490  0002F2                     	line	183
  2491                           	
  2492                           i2l1208:
  2493  0002F2                     ;interrupts.c: 183:         PIR2bits.CCP2IF = 0;
  2494                           	bcf	((c:4001)),c,0	;volatile
  2495  0002F2  90A1               	goto	i2l89
  2496  0002F4  EFA2  F001         	line	184
  2497                           ;interrupts.c: 184:     }
  2498                           	
  2499                           i2l88:
  2500  0002F8                     	goto	i2l89
  2501  0002F8  EFA2  F001         	
  2502                           i2l87:
  2503  0002FC                     	goto	i2l89
  2504  0002FC  EFA2  F001         	
  2505                           i2l85:
  2506  000300                     	goto	i2l89
  2507  000300  EFA2  F001         	
  2508                           i2l83:
  2509  000304                     	goto	i2l89
  2510  000304  EFA2  F001         	
  2511                           i2l81:
  2512  000308                     	goto	i2l89
  2513  000308  EFA2  F001         	
  2514                           i2l79:
  2515  00030C                     	goto	i2l89
  2516  00030C  EFA2  F001         	
  2517                           i2l77:
  2518  000310                     	goto	i2l89
  2519  000310  EFA2  F001         	
  2520                           i2l75:
  2521  000314                     	goto	i2l89
  2522  000314  EFA2  F001         	
  2523                           i2l73:
  2524  000318                     	goto	i2l89
  2525  000318  EFA2  F001         	
  2526                           i2l71:
  2527  00031C                     	goto	i2l89
  2528  00031C  EFA2  F001         	
  2529                           i2l69:
  2530  000320                     	goto	i2l89
  2531  000320  EFA2  F001         	
  2532                           i2l67:
  2533  000324                     	goto	i2l89
  2534  000324  EFA2  F001         	
  2535                           i2l65:
  2536  000328                     	goto	i2l89
  2537  000328  EFA2  F001         	
  2538                           i2l63:
  2539  00032C                     	goto	i2l89
  2540  00032C  EFA2  F001         	
  2541                           i2l61:
  2542  000330                     	goto	i2l89
  2543  000330  EFA2  F001         	
  2544                           i2l59:
  2545  000334                     	goto	i2l89
  2546  000334  EFA2  F001         	
  2547                           i2l57:
  2548  000338                     	goto	i2l89
  2549  000338  EFA2  F001         	
  2550                           i2l55:
  2551  00033C                     	goto	i2l89
  2552  00033C  EFA2  F001         	
  2553                           i2l53:
  2554  000340                     	goto	i2l89
  2555  000340  EFA2  F001         	
  2556                           i2l51:
  2557  000344                     	line	185
  2558                           	
  2559                           i2l89:
  2560  000344                     	movff	??_interrupts_Event+3,prodh+0
  2561  000344  C011  FFF4         	movff	??_interrupts_Event+2,prodl+0
  2562  000348  C010  FFF3         	movff	??_interrupts_Event+1,fsr2h+0
  2563  00034C  C00F  FFDA         	movff	??_interrupts_Event+0,fsr2l+0
  2564  000350  C00E  FFD9         	bcf int$flags,1,c ;clear compiler interrupt flag (level 2)
  2565  000354  9219               	retfie f
  2566  000356  0011               	opt stack 0
  2567                           GLOBAL	__end_of_interrupts_Event
  2568                           	__end_of_interrupts_Event:
  2569  000358                     	signat	_interrupts_Event,89
  2570                           	global	_vl53l0x_I2C_ReceiveData
  2571                           
  2572 ;; *************** function _vl53l0x_I2C_ReceiveData *****************
  2573 ;; Defined at:
  2574 ;;		line 24 in file "vL53L0X.c"
  2575 ;; Parameters:    Size  Location     Type
  2576 ;;  slave_addres    1    wreg     unsigned char 
  2577 ;;  device_regis    1    9[COMRAM] unsigned char 
  2578 ;; Auto vars:     Size  Location     Type
  2579 ;;  slave_addres    1   10[COMRAM] unsigned char 
  2580 ;;  recievedData    1   12[COMRAM] unsigned char [1]
  2581 ;;  sendData        1   11[COMRAM] unsigned char [1]
  2582 ;; Return value:  Size  Location     Type
  2583 ;;                  1    wreg      unsigned char 
  2584 ;; Registers used:
  2585 ;;		wreg, fsr2l, fsr2h, status,2, status,0, prodl, prodh, cstack
  2586 ;; Tracked objects:
  2587 ;;		On entry : 0/0
  2588 ;;		On exit  : 0/0
  2589 ;;		Unchanged: 0/0
  2590 ;; Data sizes:     COMRAM   BANK0   BANK1   BANK2   BANK3   BANK4   BANK5   BANK6   BANK7
  2591 ;;      Params:         1       0       0       0       0       0       0       0       0
  2592 ;;      Locals:         3       0       0       0       0       0       0       0       0
  2593 ;;      Temps:          0       0       0       0       0       0       0       0       0
  2594 ;;      Totals:         4       0       0       0       0       0       0       0       0
  2595 ;;Total ram usage:        4 bytes
  2596 ;; Hardware stack levels used:    1
  2597 ;; Hardware stack levels required when called:    3
  2598 ;; This function calls:
  2599 ;;		_i2C_ReceiveData
  2600 ;; This function is called by:
  2601 ;;		_interrupts_Event
  2602 ;; This function uses a non-reentrant model
  2603 ;;
  2604                           psect	text5,class=CODE,space=0,reloc=2,group=0
  2605                           	file	"vL53L0X.c"
  2606                           	line	24
  2607                           global __ptext5
  2608                           __ptext5:
  2609  000542                     psect	text5
  2610                           	file	"vL53L0X.c"
  2611                           	line	24
  2612                           	global	__size_of_vl53l0x_I2C_ReceiveData
  2613                           	__size_of_vl53l0x_I2C_ReceiveData	equ	__end_of_vl53l0x_I2C_ReceiveData-_vl53l0x_I2C_Rec
                                 eiveData
  2614  0000                     	
  2615                           _vl53l0x_I2C_ReceiveData:
  2616  000542                     ;incstack = 0
  2617                           	opt	stack 25
  2618                           ;vl53l0x_I2C_ReceiveData@slave_address stored from wreg
  2619                           	movwf	((c:vl53l0x_I2C_ReceiveData@slave_address)),c
  2620  000542  6E0B               	line	25
  2621                           	
  2622                           i2l1114:
  2623  000544                     ;vL53L0X.c: 25:     unsigned char sendData[1] = {device_register};
  2624                           	movff	(c:vl53l0x_I2C_ReceiveData@F26),(c:vl53l0x_I2C_ReceiveData@sendData)
  2625  000544  C018  F00C         	movff	(c:vl53l0x_I2C_ReceiveData@device_register),(c:vl53l0x_I2C_ReceiveData@sendData)

  2626  000548  C00A  F00C         	line	26
  2627                           ;vL53L0X.c: 26:     unsigned char recievedData[1] = {0x00};
  2628                           	movff	(c:vl53l0x_I2C_ReceiveData@F28),(c:vl53l0x_I2C_ReceiveData@recievedData)
  2629  00054C  C017  F00D         	line	27
  2630                           	
  2631                           i2l1116:
  2632  000550                     ;vL53L0X.c: 27:     i2C_ReceiveData(slave_address, sendData, 1, &recievedData, 1);
  2633                           		movlw	low(vl53l0x_I2C_ReceiveData@sendData)
  2634  000550  0E0C               	movwf	((c:i2C_ReceiveData@sendBytes)),c
  2635  000552  6E01               	movlw	high(vl53l0x_I2C_ReceiveData@sendData)
  2636  000554  0E00               	movwf	((c:i2C_ReceiveData@sendBytes+1)),c
  2637  000556  6E02               
  2638                           	movlw	low(01h)
  2639  000558  0E01               	movwf	((c:i2C_ReceiveData@numberOfSendBytes)),c
  2640  00055A  6E03               		movlw	low(vl53l0x_I2C_ReceiveData@recievedData)
  2641  00055C  0E0D               	movwf	((c:i2C_ReceiveData@recievedBytesPointer)),c
  2642  00055E  6E04               	movlw	high(vl53l0x_I2C_ReceiveData@recievedData)
  2643  000560  0E00               	movwf	((c:i2C_ReceiveData@recievedBytesPointer+1)),c
  2644  000562  6E05               
  2645                           	movlw	low(01h)
  2646  000564  0E01               	movwf	((c:i2C_ReceiveData@numberOfReceivedBytes)),c
  2647  000566  6E06               	movf	((c:vl53l0x_I2C_ReceiveData@slave_address)),c,w
  2648  000568  500B               	
  2649                           	call	_i2C_ReceiveData
  2650  00056A  ECAC  F001         	line	29
  2651                           	
  2652                           i2l1118:
  2653  00056E                     ;vL53L0X.c: 29:     return recievedData[0];
  2654                           	movf	((c:vl53l0x_I2C_ReceiveData@recievedData)),c,w
  2655  00056E  500D               	goto	i2l187
  2656  000570  EFBA  F002         	
  2657                           i2l1120:
  2658  000574                     	line	30
  2659                           	
  2660                           i2l187:
  2661  000574                     	return	;funcret
  2662  000574  0012               	opt stack 0
  2663                           GLOBAL	__end_of_vl53l0x_I2C_ReceiveData
  2664                           	__end_of_vl53l0x_I2C_ReceiveData:
  2665  000576                     	signat	_vl53l0x_I2C_ReceiveData,8313
  2666                           	global	_i2C_ReceiveData
  2667                           
  2668 ;; *************** function _i2C_ReceiveData *****************
  2669 ;; Defined at:
  2670 ;;		line 159 in file "i2C.c"
  2671 ;; Parameters:    Size  Location     Type
  2672 ;;  i2C_address     1    wreg     unsigned char 
  2673 ;;  sendBytes       2    0[COMRAM] PTR unsigned char 
  2674 ;;		 -> vl53l0x_I2C_ReceiveData@sendData(1), 
  2675 ;;  numberOfSend    1    2[COMRAM] unsigned char 
  2676 ;;  recievedByte    2    3[COMRAM] PTR unsigned char 
  2677 ;;		 -> vl53l0x_I2C_ReceiveData@recievedData(1), 
  2678 ;;  numberOfRece    1    5[COMRAM] unsigned char 
  2679 ;; Auto vars:     Size  Location     Type
  2680 ;;  i2C_address     1    6[COMRAM] unsigned char 
  2681 ;;  i               1    8[COMRAM] unsigned char 
  2682 ;;  i               1    7[COMRAM] unsigned char 
  2683 ;; Return value:  Size  Location     Type
  2684 ;;                  1    wreg      void 
  2685 ;; Registers used:
  2686 ;;		wreg, fsr2l, fsr2h, status,2, status,0, prodl, prodh, cstack
  2687 ;; Tracked objects:
  2688 ;;		On entry : 0/0
  2689 ;;		On exit  : 0/0
  2690 ;;		Unchanged: 0/0
  2691 ;; Data sizes:     COMRAM   BANK0   BANK1   BANK2   BANK3   BANK4   BANK5   BANK6   BANK7
  2692 ;;      Params:         6       0       0       0       0       0       0       0       0
  2693 ;;      Locals:         3       0       0       0       0       0       0       0       0
  2694 ;;      Temps:          0       0       0       0       0       0       0       0       0
  2695 ;;      Totals:         9       0       0       0       0       0       0       0       0
  2696 ;;Total ram usage:        9 bytes
  2697 ;; Hardware stack levels used:    1
  2698 ;; Hardware stack levels required when called:    2
  2699 ;; This function calls:
  2700 ;;		_i2C_RepeatedStart
  2701 ;;		_i2C_Start
  2702 ;;		_i2C_Stop
  2703 ;; This function is called by:
  2704 ;;		_vl53l0x_I2C_ReceiveData
  2705 ;; This function uses a non-reentrant model
  2706 ;;
  2707                           psect	text6,class=CODE,space=0,reloc=2,group=0
  2708                           	file	"i2C.c"
  2709                           	line	159
  2710                           global __ptext6
  2711                           __ptext6:
  2712  000358                     psect	text6
  2713                           	file	"i2C.c"
  2714                           	line	159
  2715                           	global	__size_of_i2C_ReceiveData
  2716                           	__size_of_i2C_ReceiveData	equ	__end_of_i2C_ReceiveData-_i2C_ReceiveData
  2717  0000                     	
  2718                           _i2C_ReceiveData:
  2719  000358                     ;incstack = 0
  2720                           	opt	stack 25
  2721                           ;i2C_ReceiveData@i2C_address stored from wreg
  2722                           	movwf	((c:i2C_ReceiveData@i2C_address)),c
  2723  000358  6E07               	line	160
  2724                           	
  2725                           i2l1074:
  2726  00035A                     ;i2C.c: 160:     i2C_Start();
  2727                           	call	_i2C_Start	;wreg free
  2728  00035A  ECE5  F002         	line	164
  2729                           	
  2730                           i2l1076:
  2731  00035E                     ;i2C.c: 164:     SSPBUF = i2C_address;
  2732                           	movff	(c:i2C_ReceiveData@i2C_address),(c:4041)	;volatile
  2733  00035E  C007  FFC9         	line	166
  2734                           ;i2C.c: 166:     while(PIR1bits.SSPIF == 0);
  2735                           	goto	i2l147
  2736  000362  EFB3  F001         	
  2737                           i2l148:
  2738  000366                     	
  2739                           i2l147:
  2740  000366                     	btfss	((c:3998)),c,3	;volatile
  2741  000366  A69E               	goto	i2u65_41
  2742  000368  EFB8  F001         	goto	i2u65_40
  2743  00036C  EFBA  F001         i2u65_41:
  2744  000370                     	goto	i2l147
  2745  000370  EFB3  F001         i2u65_40:
  2746  000374                     	
  2747                           i2l149:
  2748  000374                     	line	167
  2749                           ;i2C.c: 167:     PIR1bits.SSPIF = 0;
  2750                           	bcf	((c:3998)),c,3	;volatile
  2751  000374  969E               	line	169
  2752                           ;i2C.c: 169:     if (SSPCON2bits.ACKSTAT == 1) {
  2753                           	btfss	((c:4037)),c,6	;volatile
  2754  000376  ACC5               	goto	i2u66_41
  2755  000378  EFC0  F001         	goto	i2u66_40
  2756  00037C  EFC2  F001         i2u66_41:
  2757  000380                     	goto	i2l1082
  2758  000380  EFC8  F001         i2u66_40:
  2759  000384                     	line	170
  2760                           	
  2761                           i2l1078:
  2762  000384                     ;i2C.c: 170:         i2C_Stop();
  2763                           	call	_i2C_Stop	;wreg free
  2764  000384  EC01  F003         	goto	i2l151
  2765  000388  EF4B  F002         	line	171
  2766                           	
  2767                           i2l1080:
  2768  00038C                     ;i2C.c: 171:         return;
  2769                           	goto	i2l151
  2770  00038C  EF4B  F002         	line	172
  2771                           ;i2C.c: 172:     }
  2772                           	
  2773                           i2l150:
  2774  000390                     	line	176
  2775                           	
  2776                           i2l1082:
  2777  000390                     ;i2C.c: 176:     for (unsigned char i = 0; i < numberOfSendBytes; i++) {
  2778                           	movlw	low(0)
  2779  000390  0E00               	movwf	((c:i2C_ReceiveData@i)),c
  2780  000392  6E08               	goto	i2l1092
  2781  000394  EFF0  F001         	
  2782                           i2l153:
  2783  000398                     	line	177
  2784                           	
  2785                           i2l1084:
  2786  000398                     ;i2C.c: 177:         SSPBUF = sendBytes[i];
  2787                           	movf	((c:i2C_ReceiveData@i)),c,w
  2788  000398  5008               	mullw	01h
  2789  00039A  0D01               	movf	(prodl),c,w
  2790  00039C  50F3               	addwf	((c:i2C_ReceiveData@sendBytes)),c,w
  2791  00039E  2401               	movwf	c:fsr2l
  2792  0003A0  6ED9               	movf	(prodh),c,w
  2793  0003A2  50F4               	addwfc	((c:i2C_ReceiveData@sendBytes+1)),c,w
  2794  0003A4  2002               	movwf	1+c:fsr2l
  2795  0003A6  6EDA               	movf	indf2,w
  2796  0003A8  50DF               	movwf	((c:4041)),c	;volatile
  2797  0003AA  6EC9               	line	179
  2798                           ;i2C.c: 179:         while(PIR1bits.SSPIF == 0);
  2799                           	goto	i2l154
  2800  0003AC  EFD8  F001         	
  2801                           i2l155:
  2802  0003B0                     	
  2803                           i2l154:
  2804  0003B0                     	btfss	((c:3998)),c,3	;volatile
  2805  0003B0  A69E               	goto	i2u67_41
  2806  0003B2  EFDD  F001         	goto	i2u67_40
  2807  0003B6  EFDF  F001         i2u67_41:
  2808  0003BA                     	goto	i2l154
  2809  0003BA  EFD8  F001         i2u67_40:
  2810  0003BE                     	
  2811                           i2l156:
  2812  0003BE                     	line	180
  2813                           ;i2C.c: 180:         PIR1bits.SSPIF = 0;
  2814                           	bcf	((c:3998)),c,3	;volatile
  2815  0003BE  969E               	line	182
  2816                           ;i2C.c: 182:         if (SSPCON2bits.ACKSTAT == 1) {
  2817                           	btfss	((c:4037)),c,6	;volatile
  2818  0003C0  ACC5               	goto	i2u68_41
  2819  0003C2  EFE5  F001         	goto	i2u68_40
  2820  0003C6  EFE7  F001         i2u68_41:
  2821  0003CA                     	goto	i2l1090
  2822  0003CA  EFED  F001         i2u68_40:
  2823  0003CE                     	line	183
  2824                           	
  2825                           i2l1086:
  2826  0003CE                     ;i2C.c: 183:         i2C_Stop();
  2827                           	call	_i2C_Stop	;wreg free
  2828  0003CE  EC01  F003         	goto	i2l151
  2829  0003D2  EF4B  F002         	line	184
  2830                           	
  2831                           i2l1088:
  2832  0003D6                     ;i2C.c: 184:         return;
  2833                           	goto	i2l151
  2834  0003D6  EF4B  F002         	line	185
  2835                           ;i2C.c: 185:         }
  2836                           	
  2837                           i2l157:
  2838  0003DA                     	line	186
  2839                           	
  2840                           i2l1090:
  2841  0003DA                     ;i2C.c: 186:     }
  2842                           	incf	((c:i2C_ReceiveData@i)),c
  2843  0003DA  2A08               	goto	i2l1092
  2844  0003DC  EFF0  F001         	
  2845                           i2l152:
  2846  0003E0                     	
  2847                           i2l1092:
  2848  0003E0                     		movf	((c:i2C_ReceiveData@numberOfSendBytes)),c,w
  2849  0003E0  5003               	subwf	((c:i2C_ReceiveData@i)),c,w
  2850  0003E2  5C08               	btfss	status,0
  2851  0003E4  A0D8               	goto	i2u69_41
  2852  0003E6  EFF7  F001         	goto	i2u69_40
  2853  0003EA  EFF9  F001         
  2854                           i2u69_41:
  2855  0003EE                     	goto	i2l1084
  2856  0003EE  EFCC  F001         i2u69_40:
  2857  0003F2                     	goto	i2l1094
  2858  0003F2  EFFB  F001         	
  2859                           i2l158:
  2860  0003F6                     	line	188
  2861                           	
  2862                           i2l1094:
  2863  0003F6                     ;i2C.c: 188:     i2C_RepeatedStart();
  2864                           	call	_i2C_RepeatedStart	;wreg free
  2865  0003F6  ECF3  F002         	line	192
  2866                           	
  2867                           i2l1096:
  2868  0003FA                     ;i2C.c: 192:     SSPBUF = i2C_address + 1;
  2869                           	incf	((c:i2C_ReceiveData@i2C_address)),c,w
  2870  0003FA  2807               	movwf	((c:4041)),c	;volatile
  2871  0003FC  6EC9               	line	194
  2872                           ;i2C.c: 194:     while(PIR1bits.SSPIF == 0);
  2873                           	goto	i2l159
  2874  0003FE  EF01  F002         	
  2875                           i2l160:
  2876  000402                     	
  2877                           i2l159:
  2878  000402                     	btfss	((c:3998)),c,3	;volatile
  2879  000402  A69E               	goto	i2u70_41
  2880  000404  EF06  F002         	goto	i2u70_40
  2881  000408  EF08  F002         i2u70_41:
  2882  00040C                     	goto	i2l159
  2883  00040C  EF01  F002         i2u70_40:
  2884  000410                     	
  2885                           i2l161:
  2886  000410                     	line	195
  2887                           ;i2C.c: 195:     PIR1bits.SSPIF = 0;
  2888                           	bcf	((c:3998)),c,3	;volatile
  2889  000410  969E               	line	197
  2890                           ;i2C.c: 197:     if (SSPCON2bits.ACKSTAT == 1) {
  2891                           	btfss	((c:4037)),c,6	;volatile
  2892  000412  ACC5               	goto	i2u71_41
  2893  000414  EF0E  F002         	goto	i2u71_40
  2894  000418  EF10  F002         i2u71_41:
  2895  00041C                     	goto	i2l1102
  2896  00041C  EF16  F002         i2u71_40:
  2897  000420                     	line	198
  2898                           	
  2899                           i2l1098:
  2900  000420                     ;i2C.c: 198:         i2C_Stop();
  2901                           	call	_i2C_Stop	;wreg free
  2902  000420  EC01  F003         	goto	i2l151
  2903  000424  EF4B  F002         	line	199
  2904                           	
  2905                           i2l1100:
  2906  000428                     ;i2C.c: 199:         return;
  2907                           	goto	i2l151
  2908  000428  EF4B  F002         	line	200
  2909                           ;i2C.c: 200:     }
  2910                           	
  2911                           i2l162:
  2912  00042C                     	line	204
  2913                           	
  2914                           i2l1102:
  2915  00042C                     ;i2C.c: 204:     for (unsigned char i = 0; i < numberOfReceivedBytes; i++) {
  2916                           	movlw	low(0)
  2917  00042C  0E00               	movwf	((c:i2C_ReceiveData@i_848)),c
  2918  00042E  6E09               	goto	i2l1112
  2919  000430  EF40  F002         	
  2920                           i2l164:
  2921  000434                     	line	205
  2922                           ;i2C.c: 205:         SSPCON2bits.RCEN = 1;
  2923                           	bsf	((c:4037)),c,3	;volatile
  2924  000434  86C5               	line	207
  2925                           ;i2C.c: 207:         while (SSPSTATbits.BF == 0);
  2926                           	goto	i2l165
  2927  000436  EF1D  F002         	
  2928                           i2l166:
  2929  00043A                     	
  2930                           i2l165:
  2931  00043A                     	btfss	((c:4039)),c,0	;volatile
  2932  00043A  A0C7               	goto	i2u72_41
  2933  00043C  EF22  F002         	goto	i2u72_40
  2934  000440  EF24  F002         i2u72_41:
  2935  000444                     	goto	i2l165
  2936  000444  EF1D  F002         i2u72_40:
  2937  000448                     	goto	i2l1104
  2938  000448  EF26  F002         	
  2939                           i2l167:
  2940  00044C                     	line	209
  2941                           	
  2942                           i2l1104:
  2943  00044C                     ;i2C.c: 209:         recievedBytesPointer[i] = SSPBUF;
  2944                           	movf	((c:i2C_ReceiveData@i_848)),c,w
  2945  00044C  5009               	mullw	01h
  2946  00044E  0D01               	movf	(prodl),c,w
  2947  000450  50F3               	addwf	((c:i2C_ReceiveData@recievedBytesPointer)),c,w
  2948  000452  2404               	movwf	c:fsr2l
  2949  000454  6ED9               	movf	(prodh),c,w
  2950  000456  50F4               	addwfc	((c:i2C_ReceiveData@recievedBytesPointer+1)),c,w
  2951  000458  2005               	movwf	1+c:fsr2l
  2952  00045A  6EDA               	movff	(c:4041),indf2	;volatile
  2953  00045C  CFC9 FFDF          
  2954                           	line	211
  2955                           	
  2956                           i2l1106:
  2957  000460                     ;i2C.c: 211:         SSPCON2bits.ACKDT = 1;
  2958                           	bsf	((c:4037)),c,5	;volatile
  2959  000460  8AC5               	line	212
  2960                           	
  2961                           i2l1108:
  2962  000462                     ;i2C.c: 212:         SSPCON2bits.ACKEN = 1;
  2963                           	bsf	((c:4037)),c,4	;volatile
  2964  000462  88C5               	line	213
  2965                           ;i2C.c: 213:         while (SSPCON2bits.ACKEN);
  2966                           	goto	i2l168
  2967  000464  EF34  F002         	
  2968                           i2l169:
  2969  000468                     	
  2970                           i2l168:
  2971  000468                     	btfsc	((c:4037)),c,4	;volatile
  2972  000468  B8C5               	goto	i2u73_41
  2973  00046A  EF39  F002         	goto	i2u73_40
  2974  00046E  EF3B  F002         i2u73_41:
  2975  000472                     	goto	i2l168
  2976  000472  EF34  F002         i2u73_40:
  2977  000476                     	goto	i2l1110
  2978  000476  EF3D  F002         	
  2979                           i2l170:
  2980  00047A                     	line	214
  2981                           	
  2982                           i2l1110:
  2983  00047A                     ;i2C.c: 214:     }
  2984                           	incf	((c:i2C_ReceiveData@i_848)),c
  2985  00047A  2A09               	goto	i2l1112
  2986  00047C  EF40  F002         	
  2987                           i2l163:
  2988  000480                     	
  2989                           i2l1112:
  2990  000480                     		movf	((c:i2C_ReceiveData@numberOfReceivedBytes)),c,w
  2991  000480  5006               	subwf	((c:i2C_ReceiveData@i_848)),c,w
  2992  000482  5C09               	btfss	status,0
  2993  000484  A0D8               	goto	i2u74_41
  2994  000486  EF47  F002         	goto	i2u74_40
  2995  00048A  EF49  F002         
  2996                           i2u74_41:
  2997  00048E                     	goto	i2l164
  2998  00048E  EF1A  F002         i2u74_40:
  2999  000492                     	goto	i2l151
  3000  000492  EF4B  F002         	
  3001                           i2l171:
  3002  000496                     	line	217
  3003                           	
  3004                           i2l151:
  3005  000496                     	return	;funcret
  3006  000496  0012               	opt stack 0
  3007                           GLOBAL	__end_of_i2C_ReceiveData
  3008                           	__end_of_i2C_ReceiveData:
  3009  000498                     	signat	_i2C_ReceiveData,20601
  3010                           	global	_i2C_Stop
  3011                           
  3012 ;; *************** function _i2C_Stop *****************
  3013 ;; Defined at:
  3014 ;;		line 113 in file "i2C.c"
  3015 ;; Parameters:    Size  Location     Type
  3016 ;;		None
  3017 ;; Auto vars:     Size  Location     Type
  3018 ;;		None
  3019 ;; Return value:  Size  Location     Type
  3020 ;;                  1    wreg      void 
  3021 ;; Registers used:
  3022 ;;		None
  3023 ;; Tracked objects:
  3024 ;;		On entry : 0/0
  3025 ;;		On exit  : 0/0
  3026 ;;		Unchanged: 0/0
  3027 ;; Data sizes:     COMRAM   BANK0   BANK1   BANK2   BANK3   BANK4   BANK5   BANK6   BANK7
  3028 ;;      Params:         0       0       0       0       0       0       0       0       0
  3029 ;;      Locals:         0       0       0       0       0       0       0       0       0
  3030 ;;      Temps:          0       0       0       0       0       0       0       0       0
  3031 ;;      Totals:         0       0       0       0       0       0       0       0       0
  3032 ;;Total ram usage:        0 bytes
  3033 ;; Hardware stack levels used:    1
  3034 ;; This function calls:
  3035 ;;		Nothing
  3036 ;; This function is called by:
  3037 ;;		_i2C_ReceiveData
  3038 ;;		_i2C_SendData
  3039 ;; This function uses a non-reentrant model
  3040 ;;
  3041                           psect	text7,class=CODE,space=0,reloc=2,group=0
  3042                           	line	113
  3043                           global __ptext7
  3044                           __ptext7:
  3045  000602                     psect	text7
  3046                           	file	"i2C.c"
  3047                           	line	113
  3048                           	global	__size_of_i2C_Stop
  3049                           	__size_of_i2C_Stop	equ	__end_of_i2C_Stop-_i2C_Stop
  3050  0000                     	
  3051                           _i2C_Stop:
  3052  000602                     ;incstack = 0
  3053                           	opt	stack 26
  3054                           	line	114
  3055                           	
  3056                           i2l884:
  3057  000602                     ;i2C.c: 114:     SSPCON2bits.PEN = 1;
  3058                           	bsf	((c:4037)),c,2	;volatile
  3059  000602  84C5               	line	115
  3060                           ;i2C.c: 115:     while(SSPCON2bits.PEN == 1);
  3061                           	goto	i2l127
  3062  000604  EF04  F003         	
  3063                           i2l128:
  3064  000608                     	
  3065                           i2l127:
  3066  000608                     	btfsc	((c:4037)),c,2	;volatile
  3067  000608  B4C5               	goto	i2u8_41
  3068  00060A  EF09  F003         	goto	i2u8_40
  3069  00060E  EF0B  F003         i2u8_41:
  3070  000612                     	goto	i2l127
  3071  000612  EF04  F003         i2u8_40:
  3072  000616                     	goto	i2l130
  3073  000616  EF0D  F003         	
  3074                           i2l129:
  3075  00061A                     	line	116
  3076                           	
  3077                           i2l130:
  3078  00061A                     	return	;funcret
  3079  00061A  0012               	opt stack 0
  3080                           GLOBAL	__end_of_i2C_Stop
  3081                           	__end_of_i2C_Stop:
  3082  00061C                     	signat	_i2C_Stop,89
  3083                           	global	_i2C_Start
  3084                           
  3085 ;; *************** function _i2C_Start *****************
  3086 ;; Defined at:
  3087 ;;		line 87 in file "i2C.c"
  3088 ;; Parameters:    Size  Location     Type
  3089 ;;		None
  3090 ;; Auto vars:     Size  Location     Type
  3091 ;;		None
  3092 ;; Return value:  Size  Location     Type
  3093 ;;                  1    wreg      void 
  3094 ;; Registers used:
  3095 ;;		cstack
  3096 ;; Tracked objects:
  3097 ;;		On entry : 0/0
  3098 ;;		On exit  : 0/0
  3099 ;;		Unchanged: 0/0
  3100 ;; Data sizes:     COMRAM   BANK0   BANK1   BANK2   BANK3   BANK4   BANK5   BANK6   BANK7
  3101 ;;      Params:         0       0       0       0       0       0       0       0       0
  3102 ;;      Locals:         0       0       0       0       0       0       0       0       0
  3103 ;;      Temps:          0       0       0       0       0       0       0       0       0
  3104 ;;      Totals:         0       0       0       0       0       0       0       0       0
  3105 ;;Total ram usage:        0 bytes
  3106 ;; Hardware stack levels used:    1
  3107 ;; Hardware stack levels required when called:    1
  3108 ;; This function calls:
  3109 ;;		_i2C_Wait
  3110 ;; This function is called by:
  3111 ;;		_i2C_ReceiveData
  3112 ;;		_i2C_SendData
  3113 ;; This function uses a non-reentrant model
  3114 ;;
  3115                           psect	text8,class=CODE,space=0,reloc=2,group=0
  3116                           	line	87
  3117                           global __ptext8
  3118                           __ptext8:
  3119  0005CA                     psect	text8
  3120                           	file	"i2C.c"
  3121                           	line	87
  3122                           	global	__size_of_i2C_Start
  3123                           	__size_of_i2C_Start	equ	__end_of_i2C_Start-_i2C_Start
  3124  0000                     	
  3125                           _i2C_Start:
  3126  0005CA                     ;incstack = 0
  3127                           	opt	stack 25
  3128                           	line	88
  3129                           	
  3130                           i2l876:
  3131  0005CA                     ;i2C.c: 88:     i2C_Wait();
  3132                           	call	_i2C_Wait	;wreg free
  3133  0005CA  EC79  F002         	line	90
  3134                           	
  3135                           i2l878:
  3136  0005CE                     ;i2C.c: 90:     SSPCON2bits.SEN = 1;
  3137                           	bsf	((c:4037)),c,0	;volatile
  3138  0005CE  80C5               	line	91
  3139                           ;i2C.c: 91:     while (SSPCON2bits.SEN == 1);
  3140                           	goto	i2l115
  3141  0005D0  EFEA  F002         	
  3142                           i2l116:
  3143  0005D4                     	
  3144                           i2l115:
  3145  0005D4                     	btfsc	((c:4037)),c,0	;volatile
  3146  0005D4  B0C5               	goto	i2u6_41
  3147  0005D6  EFEF  F002         	goto	i2u6_40
  3148  0005DA  EFF1  F002         i2u6_41:
  3149  0005DE                     	goto	i2l115
  3150  0005DE  EFEA  F002         i2u6_40:
  3151  0005E2                     	
  3152                           i2l117:
  3153  0005E2                     	line	92
  3154                           ;i2C.c: 92:     PIR1bits.SSPIF = 0;
  3155                           	bcf	((c:3998)),c,3	;volatile
  3156  0005E2  969E               	line	93
  3157                           	
  3158                           i2l118:
  3159  0005E4                     	return	;funcret
  3160  0005E4  0012               	opt stack 0
  3161                           GLOBAL	__end_of_i2C_Start
  3162                           	__end_of_i2C_Start:
  3163  0005E6                     	signat	_i2C_Start,89
  3164                           	global	_i2C_RepeatedStart
  3165                           
  3166 ;; *************** function _i2C_RepeatedStart *****************
  3167 ;; Defined at:
  3168 ;;		line 100 in file "i2C.c"
  3169 ;; Parameters:    Size  Location     Type
  3170 ;;		None
  3171 ;; Auto vars:     Size  Location     Type
  3172 ;;		None
  3173 ;; Return value:  Size  Location     Type
  3174 ;;                  1    wreg      void 
  3175 ;; Registers used:
  3176 ;;		cstack
  3177 ;; Tracked objects:
  3178 ;;		On entry : 0/0
  3179 ;;		On exit  : 0/0
  3180 ;;		Unchanged: 0/0
  3181 ;; Data sizes:     COMRAM   BANK0   BANK1   BANK2   BANK3   BANK4   BANK5   BANK6   BANK7
  3182 ;;      Params:         0       0       0       0       0       0       0       0       0
  3183 ;;      Locals:         0       0       0       0       0       0       0       0       0
  3184 ;;      Temps:          0       0       0       0       0       0       0       0       0
  3185 ;;      Totals:         0       0       0       0       0       0       0       0       0
  3186 ;;Total ram usage:        0 bytes
  3187 ;; Hardware stack levels used:    1
  3188 ;; Hardware stack levels required when called:    1
  3189 ;; This function calls:
  3190 ;;		_i2C_Wait
  3191 ;; This function is called by:
  3192 ;;		_i2C_ReceiveData
  3193 ;; This function uses a non-reentrant model
  3194 ;;
  3195                           psect	text9,class=CODE,space=0,reloc=2,group=0
  3196                           	line	100
  3197                           global __ptext9
  3198                           __ptext9:
  3199  0005E6                     psect	text9
  3200                           	file	"i2C.c"
  3201                           	line	100
  3202                           	global	__size_of_i2C_RepeatedStart
  3203                           	__size_of_i2C_RepeatedStart	equ	__end_of_i2C_RepeatedStart-_i2C_RepeatedStart
  3204  0000                     	
  3205                           _i2C_RepeatedStart:
  3206  0005E6                     ;incstack = 0
  3207                           	opt	stack 25
  3208                           	line	101
  3209                           	
  3210                           i2l880:
  3211  0005E6                     ;i2C.c: 101:     i2C_Wait();
  3212                           	call	_i2C_Wait	;wreg free
  3213  0005E6  EC79  F002         	line	103
  3214                           	
  3215                           i2l882:
  3216  0005EA                     ;i2C.c: 103:     SSPCON2bits.RSEN = 1;
  3217                           	bsf	((c:4037)),c,1	;volatile
  3218  0005EA  82C5               	line	104
  3219                           ;i2C.c: 104:     while (SSPCON2bits.SEN == 1);
  3220                           	goto	i2l121
  3221  0005EC  EFF8  F002         	
  3222                           i2l122:
  3223  0005F0                     	
  3224                           i2l121:
  3225  0005F0                     	btfsc	((c:4037)),c,0	;volatile
  3226  0005F0  B0C5               	goto	i2u7_41
  3227  0005F2  EFFD  F002         	goto	i2u7_40
  3228  0005F6  EFFF  F002         i2u7_41:
  3229  0005FA                     	goto	i2l121
  3230  0005FA  EFF8  F002         i2u7_40:
  3231  0005FE                     	
  3232                           i2l123:
  3233  0005FE                     	line	105
  3234                           ;i2C.c: 105:     PIR1bits.SSPIF = 0;
  3235                           	bcf	((c:3998)),c,3	;volatile
  3236  0005FE  969E               	line	106
  3237                           	
  3238                           i2l124:
  3239  000600                     	return	;funcret
  3240  000600  0012               	opt stack 0
  3241                           GLOBAL	__end_of_i2C_RepeatedStart
  3242                           	__end_of_i2C_RepeatedStart:
  3243  000602                     	signat	_i2C_RepeatedStart,89
  3244                           	global	_i2C_Wait
  3245                           
  3246 ;; *************** function _i2C_Wait *****************
  3247 ;; Defined at:
  3248 ;;		line 76 in file "i2C.c"
  3249 ;; Parameters:    Size  Location     Type
  3250 ;;		None
  3251 ;; Auto vars:     Size  Location     Type
  3252 ;;		None
  3253 ;; Return value:  Size  Location     Type
  3254 ;;                  1    wreg      void 
  3255 ;; Registers used:
  3256 ;;		None
  3257 ;; Tracked objects:
  3258 ;;		On entry : 0/0
  3259 ;;		On exit  : 0/0
  3260 ;;		Unchanged: 0/0
  3261 ;; Data sizes:     COMRAM   BANK0   BANK1   BANK2   BANK3   BANK4   BANK5   BANK6   BANK7
  3262 ;;      Params:         0       0       0       0       0       0       0       0       0
  3263 ;;      Locals:         0       0       0       0       0       0       0       0       0
  3264 ;;      Temps:          0       0       0       0       0       0       0       0       0
  3265 ;;      Totals:         0       0       0       0       0       0       0       0       0
  3266 ;;Total ram usage:        0 bytes
  3267 ;; Hardware stack levels used:    1
  3268 ;; This function calls:
  3269 ;;		Nothing
  3270 ;; This function is called by:
  3271 ;;		_i2C_Start
  3272 ;;		_i2C_RepeatedStart
  3273 ;; This function uses a non-reentrant model
  3274 ;;
  3275                           psect	text10,class=CODE,space=0,reloc=2,group=0
  3276                           	line	76
  3277                           global __ptext10
  3278                           __ptext10:
  3279  0004F2                     psect	text10
  3280                           	file	"i2C.c"
  3281                           	line	76
  3282                           	global	__size_of_i2C_Wait
  3283                           	__size_of_i2C_Wait	equ	__end_of_i2C_Wait-_i2C_Wait
  3284  0000                     	
  3285                           _i2C_Wait:
  3286  0004F2                     ;incstack = 0
  3287                           	opt	stack 25
  3288                           	line	77
  3289                           	
  3290                           i2l866:
  3291  0004F2                     ;i2C.c: 77:     while(SSPSTATbits.RW == 1 || SSPCON2bits.RCEN == 1 || SSPCON2bits.PEN ==
                                  1
  3292                           	goto	i2l109
  3293  0004F2  EF7B  F002         	
  3294                           i2l110:
  3295  0004F6                     	line	79
  3296                           ;i2C.c: 78:             || SSPCON2bits.RSEN == 1 || SSPCON2bits.SEN == 1 ) {;i2C.c: 79: 
                                     }
  3297                           	
  3298                           i2l109:
  3299  0004F6                     	line	77
  3300                           ;i2C.c: 77:     while(SSPSTATbits.RW == 1 || SSPCON2bits.RCEN == 1 || SSPCON2bits.PEN ==
                                  1
  3301                           	btfsc	((c:4039)),c,2	;volatile
  3302  0004F6  B4C7               	goto	i2u1_41
  3303  0004F8  EF80  F002         	goto	i2u1_40
  3304  0004FC  EF82  F002         i2u1_41:
  3305  000500                     	goto	i2l109
  3306  000500  EF7B  F002         i2u1_40:
  3307  000504                     	
  3308                           i2l868:
  3309  000504                     	btfsc	((c:4037)),c,3	;volatile
  3310  000504  B6C5               	goto	i2u2_41
  3311  000506  EF87  F002         	goto	i2u2_40
  3312  00050A  EF89  F002         i2u2_41:
  3313  00050E                     	goto	i2l109
  3314  00050E  EF7B  F002         i2u2_40:
  3315  000512                     	
  3316                           i2l870:
  3317  000512                     	btfsc	((c:4037)),c,2	;volatile
  3318  000512  B4C5               	goto	i2u3_41
  3319  000514  EF8E  F002         	goto	i2u3_40
  3320  000518  EF90  F002         i2u3_41:
  3321  00051C                     	goto	i2l109
  3322  00051C  EF7B  F002         i2u3_40:
  3323  000520                     	
  3324                           i2l872:
  3325  000520                     	btfsc	((c:4037)),c,1	;volatile
  3326  000520  B2C5               	goto	i2u4_41
  3327  000522  EF95  F002         	goto	i2u4_40
  3328  000526  EF97  F002         i2u4_41:
  3329  00052A                     	goto	i2l109
  3330  00052A  EF7B  F002         i2u4_40:
  3331  00052E                     	
  3332                           i2l874:
  3333  00052E                     	btfsc	((c:4037)),c,0	;volatile
  3334  00052E  B0C5               	goto	i2u5_41
  3335  000530  EF9C  F002         	goto	i2u5_40
  3336  000534  EF9E  F002         i2u5_41:
  3337  000538                     	goto	i2l109
  3338  000538  EF7B  F002         i2u5_40:
  3339  00053C                     	goto	i2l112
  3340  00053C  EFA0  F002         	
  3341                           i2l111:
  3342  000540                     	line	80
  3343                           	
  3344                           i2l112:
  3345  000540                     	return	;funcret
  3346  000540  0012               	opt stack 0
  3347                           GLOBAL	__end_of_i2C_Wait
  3348                           	__end_of_i2C_Wait:
  3349  000542                     	signat	_i2C_Wait,89
  3350                           	GLOBAL	__activetblptr
  3351                           __activetblptr	EQU	0
  3352  0000                     	psect	intsave_regs,class=BIGRAM,space=1,noexec
  3353                           	PSECT	rparam,class=COMRAM,space=1,noexec
  3354                           	GLOBAL	__Lrparam
  3355                           	FNCONF	rparam,??,?
  3356                           	GLOBAL	___rparam_used
  3357                           	___rparam_used EQU 1
  3358  0000                     	GLOBAL	___param_bank
  3359                           	___param_bank EQU 0
  3360  0000                     GLOBAL	__Lparam, __Hparam
  3361                           GLOBAL	__Lrparam, __Hrparam
  3362                           __Lparam	EQU	__Lrparam
  3363  0000                     __Hparam	EQU	__Hrparam
  3364  0000                            psect   temp,common,ovrld,class=COMRAM,space=1
  3365                           	global	btemp
  3366                           btemp:
  3367  000019                     	ds	1
  3368  000019                     	global	int$flags
  3369                           	int$flags	set btemp
  3370  0000                     	global	wtemp8
  3371                           	wtemp8 set btemp+1
  3372  0000                     	global	ttemp5
  3373                           	ttemp5 set btemp+1
  3374  0000                     	global	ttemp6
  3375                           	ttemp6 set btemp+4
  3376  0000                     	global	ttemp7
  3377                           	ttemp7 set btemp+8
  3378  0000                     	end


Data Sizes:
    Strings     0
    Constant    0
    Data        0
    BSS         4
    Persistent  0
    Stack       0

Auto Spaces:
    Space          Size  Autos    Used
    COMRAM           94     20      24
    BANK0           160      0       0
    BANK1           256      0       0
    BANK2           256      0       0
    BANK3           256      0       0
    BANK4           256      0       0
    BANK5           256      0       0
    BANK6           256      0       0
    BANK7           256      0       0

Pointer List with Targets:

    i2C_ReceiveData@recievedBytesPointer	PTR unsigned char  size(2) Largest target is 1
		 -> vl53l0x_I2C_ReceiveData@recievedData(COMRAM[1]), 

    i2C_ReceiveData@sendBytes	PTR unsigned char  size(2) Largest target is 1
		 -> vl53l0x_I2C_ReceiveData@sendData(COMRAM[1]), 


Critical Paths under _main in COMRAM

    None.

Critical Paths under _interrupts_Event in COMRAM

    _interrupts_Event->_vl53l0x_I2C_ReceiveData
    _vl53l0x_I2C_ReceiveData->_i2C_ReceiveData

Critical Paths under _main in BANK0

    None.

Critical Paths under _interrupts_Event in BANK0

    None.

Critical Paths under _main in BANK1

    None.

Critical Paths under _interrupts_Event in BANK1

    None.

Critical Paths under _main in BANK2

    None.

Critical Paths under _interrupts_Event in BANK2

    None.

Critical Paths under _main in BANK3

    None.

Critical Paths under _interrupts_Event in BANK3

    None.

Critical Paths under _main in BANK4

    None.

Critical Paths under _interrupts_Event in BANK4

    None.

Critical Paths under _main in BANK5

    None.

Critical Paths under _interrupts_Event in BANK5

    None.

Critical Paths under _main in BANK6

    None.

Critical Paths under _interrupts_Event in BANK6

    None.

Critical Paths under _main in BANK7

    None.

Critical Paths under _interrupts_Event in BANK7

    None.

Call Graph Tables:

 ---------------------------------------------------------------------------------
 (Depth) Function   	        Calls       Base Space   Used Autos Params    Refs
 ---------------------------------------------------------------------------------
 (0) _main                                                 0     0      0       0
                          _i2C_Setup
                   _interrupts_Setup
                      _vl5310x_Setup
 ---------------------------------------------------------------------------------
 (1) _vl5310x_Setup                                        0     0      0       0
 ---------------------------------------------------------------------------------
 (1) _interrupts_Setup                                     0     0      0       0
 ---------------------------------------------------------------------------------
 (1) _i2C_Setup                                            0     0      0       0
 ---------------------------------------------------------------------------------
 Estimated maximum stack depth 1
 ---------------------------------------------------------------------------------
 (Depth) Function   	        Calls       Base Space   Used Autos Params    Refs
 ---------------------------------------------------------------------------------
 (2) _interrupts_Event                                     7     7      0     789
                                             13 COMRAM     7     7      0
            _vl53l0x_I2C_ReceiveData
 ---------------------------------------------------------------------------------
 (3) _vl53l0x_I2C_ReceiveData                              4     3      1     720
                                              9 COMRAM     4     3      1
                    _i2C_ReceiveData
 ---------------------------------------------------------------------------------
 (4) _i2C_ReceiveData                                      9     3      6     528
                                              0 COMRAM     9     3      6
                  _i2C_RepeatedStart
                          _i2C_Start
                           _i2C_Stop
 ---------------------------------------------------------------------------------
 (5) _i2C_Stop                                             0     0      0       0
 ---------------------------------------------------------------------------------
 (5) _i2C_Start                                            0     0      0       0
                           _i2C_Wait
 ---------------------------------------------------------------------------------
 (5) _i2C_RepeatedStart                                    0     0      0       0
                           _i2C_Wait
 ---------------------------------------------------------------------------------
 (6) _i2C_Wait                                             0     0      0       0
 ---------------------------------------------------------------------------------
 Estimated maximum stack depth 6
 ---------------------------------------------------------------------------------

 Call Graph Graphs:

 _main (ROOT)
   _i2C_Setup
   _interrupts_Setup
   _vl5310x_Setup

 _interrupts_Event (ROOT)
   _vl53l0x_I2C_ReceiveData
     _i2C_ReceiveData
       _i2C_RepeatedStart
         _i2C_Wait
       _i2C_Start
         _i2C_Wait
       _i2C_Stop

 Address spaces:
Name               Size   Autos  Total    Cost      Usage
BIGRAM             7FF      0       0      21        0.0%
EEDATA             100      0       0       0        0.0%
BITBANK7           100      0       0      18        0.0%
BANK7              100      0       0      19        0.0%
BITBANK6           100      0       0      16        0.0%
BANK6              100      0       0      17        0.0%
BITBANK5           100      0       0      14        0.0%
BANK5              100      0       0      15        0.0%
BITBANK4           100      0       0      12        0.0%
BANK4              100      0       0      13        0.0%
BITBANK3           100      0       0      10        0.0%
BANK3              100      0       0      11        0.0%
BITBANK2           100      0       0       8        0.0%
BANK2              100      0       0       9        0.0%
BITBANK1           100      0       0       6        0.0%
BANK1              100      0       0       7        0.0%
BITBANK0            A0      0       0       4        0.0%
BANK0               A0      0       0       5        0.0%
BITCOMRAM           5E      0       0       0        0.0%
COMRAM              5E     14      18       1       25.5%
BITSFR               0      0       0     200        0.0%
SFR                  0      0       0     200        0.0%
STACK                0      0       0       2        0.0%
NULL                 0      0       0       0        0.0%
ABS                  0      0      18      20        0.0%
DATA                 0      0      18       3        0.0%
CODE                 0      0       0       0        0.0%


Microchip Technology PIC18 Macro Assembler V2.00 build -1524193055 
Symbol Table                                                                                   Sun Dec 02 01:36:38 2018

                           _SSPSTATbits 000FC7                                      l15 05C2  
                                    l16 05C2                                      l17 05C6  
                                    l18 05C6                                      l43 04F0  
                                   l106 05A2                                     l190 062E  
                                   l930 059E                                     l926 0498  
                                   l928 0576                                     l960 05A8  
                                   l970 05B6                                     l962 05AC  
                                   l980 05C0                                     l972 05B8  
                                   l964 05B0                                     l974 05BA  
                                   l966 05B2                                     l958 05A4  
                                   l976 05BC                                     l968 05B4  
                                   l978 05BE                            __CFG_WDT$OFF 000000  
                                  i2l50 006C                                    i2l51 0344  
                                  i2l60 011C                                    i2l52 0094  
                                  i2l53 0340                                    i2l61 0330  
                                  i2l70 01C6                                    i2l62 013E  
                                  i2l54 00B6                                    i2l55 033C  
                                  i2l63 032C                                    i2l71 031C  
                                  i2l80 0270                                    i2l72 01E8  
                                  i2l64 0160                                    i2l56 00D8  
                                  i2l48 0072                                    i2l57 0338  
                                  i2l65 0328                                    i2l73 0318  
                                  i2l81 0308                                    i2l49 006A  
                                  i2l82 0292                                    i2l74 020A  
                                  i2l66 0182                                    i2l58 00FA  
                                  i2l59 0334                                    i2l67 0324  
                                  i2l75 0314                                    i2l83 0304  
                                  i2l84 02B4                                    i2l76 022C  
                                  i2l68 01A4                                    i2l69 0320  
                                  i2l77 0310                                    i2l85 0300  
                                  i2l86 02D6                                    i2l78 024E  
                                  i2l79 030C                                    i2l87 02FC  
                                  i2l88 02F8                                    i2l89 0344  
         interrupts_Event@slave_address 0012                                    _main 05A4  
                                  fsr2h 000FDA                                    indf2 000FDF  
                                  fsr2l 000FD9                                    btemp 0019  
                                  prodh 000FF4                                    prodl 000FF3  
                                  start 000E                            ___param_bank 000000  
   vl53l0x_I2C_ReceiveData@recievedData 000D                                   ?_main 0001  
              __end_of_interrupts_Event 0358                                   i2l110 04F6  
                                 i2l111 0540                                   i2l112 0540  
                                 i2l121 05F0                                   i2l122 05F0  
                                 i2l130 061A                                   i2l123 05FE  
                                 i2l115 05D4                                   i2l124 0600  
                                 i2l116 05D4                                   i2l109 04F6  
                                 i2l117 05E2                                   i2l118 05E4  
                                 i2l150 0390                                   i2l127 0608  
                                 i2l151 0496                                   i2l128 0608  
                                 i2l160 0402                                   i2l152 03E0  
                                 i2l129 061A                                   i2l161 0410  
                                 i2l153 0398                                   i2l170 047A  
                                 i2l162 042C                                   i2l154 03B0  
                                 i2l171 0496                                   i2l163 0480  
                                 i2l155 03B0                                   i2l147 0366  
                                 i2l164 0434                                   i2l156 03BE  
                                 i2l148 0366                                   i2l165 043A  
                                 i2l157 03DA                                   i2l149 0374  
                                 i2l166 043A                                   i2l158 03F6  
                                 i2l167 044C                                   i2l159 0402  
                                 i2l168 0468                                   i2l169 0468  
                                 i2l187 0574                                   i2l870 0512  
                                 i2l872 0520                                   i2l880 05E6  
                                 i2l874 052E                                   i2l866 04F2  
                                 i2l882 05EA                                   i2l868 0504  
                                 i2l876 05CA                                   i2l884 0602  
                                 i2l878 05CE                __end_of_interrupts_Setup 04F2  
             ??_vl53l0x_I2C_ReceiveData 000B                                   ttemp5 001A  
                                 ttemp6 001D                                   ttemp7 0021  
                                 status 000FD8                                   wtemp8 001A  
                      __end_of_i2C_Wait 0542                        __end_of_i2C_Stop 061C  
              __size_of_i2C_ReceiveData 0140                          __CFG_MCLRE$OFF 000000  
                       __initialization 061C                            __end_of_main 05CA  
                    __size_of_i2C_Setup 002E                      __size_of_i2C_Start 001C  
vl53l0x_I2C_ReceiveData@device_register 000A                                  ??_main 0015  
                         __activetblptr 000000                                  i2l1100 0428  
                                i2l1110 047A                                  i2l1102 042C  
                                i2l1104 044C                                  i2l1112 0480  
                                i2l1120 0574                                  i2l1200 02AE  
                                i2l1106 0460                                  i2l1114 0544  
                                i2l1202 02C2                                  i2l1130 0054  
                                i2l1122 0024                                  i2l1108 0462  
                                i2l1116 0550                                  i2l1204 02D0  
                                i2l1140 00B0                                  i2l1132 0064  
                                i2l1124 0032                                  i2l1118 056E  
                                i2l1206 02E4                                  i2l1150 0108  
                                i2l1142 00C4                                  i2l1134 0080  
                                i2l1126 0040                                  i2l1080 038C  
                                i2l1208 02F2                                  i2l1160 015A  
                                i2l1152 0116                                  i2l1144 00D2  
                                i2l1136 008E                                  i2l1128 0048  
                                i2l1090 03DA                                  i2l1082 0390  
                                i2l1074 035A                                  i2l1170 01B2  
                                i2l1162 016E                                  i2l1154 012A  
                                i2l1146 00E6                                  i2l1138 00A2  
                                i2l1084 0398                                  i2l1092 03E0  
                                i2l1076 035E                                  i2l1180 0204  
                                i2l1172 01C0                                  i2l1164 017C  
                                i2l1156 0138                                  i2l1148 00F4  
                                i2l1094 03F6                                  i2l1086 03CE  
                                i2l1078 0384                                  i2l1190 025C  
                                i2l1182 0218                                  i2l1174 01D4  
                                i2l1166 0190                                  i2l1158 014C  
                                i2l1096 03FA                                  i2l1088 03D6  
                                i2l1192 026A                                  i2l1184 0226  
                                i2l1176 01E2                                  i2l1168 019E  
                                i2l1098 0420                                  i2l1194 027E  
                                i2l1186 023A                                  i2l1178 01F6  
                                i2l1196 028C                                  i2l1188 0248  
                                i2l1198 02A0                                  i2u1_40 0504  
                                i2u1_41 0500                                  i2u2_40 0512  
                                i2u2_41 050E                                  i2u3_40 0520  
                                i2u3_41 051C                                  i2u4_40 052E  
                                i2u4_41 052A                                  i2u5_40 053C  
                                i2u5_41 0538                                  i2u6_40 05E2  
                                i2u6_41 05DE                                  i2u7_40 05FE  
                                i2u7_41 05FA                                  _SSPADD 000FC8  
                                i2u8_40 0616                                  i2u8_41 0612  
                                _SSPBUF 000FC9         __end_of_vl53l0x_I2C_ReceiveData 0576  
            i2C_ReceiveData@i2C_address 0007                        i2C_ReceiveData@i 0008  
                     __end_of_i2C_Setup 05A4                       __end_of_i2C_Start 05E6  
                            __accesstop 0060                 __end_of__initialization 0624  
                         ___rparam_used 000001                          __pcstackCOMRAM 0001  
                     ??_i2C_ReceiveData 0007                       _i2C_RepeatedStart 05E6  
                __size_of_vl5310x_Setup 0002                      ?_i2C_RepeatedStart 0001  
                             ?_i2C_Wait 0001                               ?_i2C_Stop 0001  
                   ??_i2C_RepeatedStart 0001               __end_of_i2C_RepeatedStart 0602  
                     ?_interrupts_Event 0001                       ?_interrupts_Setup 0001  
                            ??_i2C_Wait 0001                              ??_i2C_Stop 0001  
                    ??_interrupts_Event 000E                                 i2u70_40 0410  
                               i2u70_41 040C                                 i2u71_40 0420  
                               i2u71_41 041C                                 i2u72_40 0448  
                               i2u80_40 00A2                                 i2u72_41 0444  
                               i2u80_41 009E                                 i2u73_40 0476  
                               i2u65_40 0374                                 i2u81_40 00B0  
                               i2u73_41 0472                                 i2u65_41 0370  
                               i2u81_41 00AC                                 i2u74_40 0492  
                               i2u66_40 0384                                 i2u90_40 014C  
                               i2u82_40 00C4                                 i2u74_41 048E  
                               i2u66_41 0380                                 i2u90_41 0148  
                               i2u82_41 00C0                                 i2u67_40 03BE  
                               i2u91_40 015A                                 i2u83_40 00D2  
                               i2u75_40 0032                                 i2u67_41 03BA  
                               i2u91_41 0156                                 i2u83_41 00CE  
                               i2u75_41 002E                                 i2u68_40 03CE  
                               i2u92_40 016E                                 i2u84_40 00E6  
                               i2u76_40 0040                                 i2u68_41 03CA  
                               i2u92_41 016A                                 i2u84_41 00E2  
                               i2u76_41 003C                                 i2u69_40 03F2  
                               i2u93_40 017C                                 i2u85_40 00F4  
                               i2u77_40 0064                                 i2u69_41 03EE  
                               i2u93_41 0178                                 i2u85_41 00F0  
                               i2u77_41 0060                                 i2u94_40 0190  
                               i2u86_40 0108                                 i2u78_40 0080  
                               i2u94_41 018C                                 i2u86_41 0104  
                               i2u78_41 007C                                 i2u95_40 019E  
                               i2u87_40 0116                                 i2u79_40 008E  
                               i2u95_41 019A                                 i2u87_41 0112  
                               i2u79_41 008A                      ??_interrupts_Setup 0015  
                               i2u96_40 01B2                                 i2u88_40 012A  
                               i2u96_41 01AE                                 i2u88_41 0126  
                               i2u97_40 01C0                                 i2u89_40 0138  
                               i2u97_41 01BC                                 i2u89_41 0134  
                               i2u98_40 01D4                                 i2u98_41 01D0  
                               i2u99_40 01E2                                 i2u99_41 01DE  
                         _vl5310x_Setup 062E                                 __Hparam 0000  
                               __Lparam 0000                                 __pcinit 061C  
                               __ramtop 0800                                 __ptext0 05A4  
                               __ptext1 062E                                 __ptext2 0498  
                               __ptext3 0576                                 __ptext5 0542  
                               __ptext6 0358                                 __ptext7 0602  
                               __ptext8 05CA                                 __ptext9 05E6  
                             _T0CONbits 000FD5                          ?_vl5310x_Setup 0001  
                        __pintcode_body 0012                    end_of_initialization 0624  
                               int_func 0012              __size_of_i2C_RepeatedStart 001C  
                             _PORTBbits 000F81    i2C_ReceiveData@numberOfReceivedBytes 0006  
  vl53l0x_I2C_ReceiveData@slave_address 000B                ?_vl53l0x_I2C_ReceiveData 000A  
                             _TRISBbits 000F93                         _i2C_ReceiveData 0358  
                             _i2C_Setup 0576                               _i2C_Start 05CA  
   i2C_ReceiveData@recievedBytesPointer 0004                     start_initialization 061C  
                       ??_vl5310x_Setup 0015                       __size_of_i2C_Wait 0050  
                     __size_of_i2C_Stop 001A                              ?_i2C_Setup 0001  
                            ?_i2C_Start 0001                             __pbssCOMRAM 0015  
               __end_of_i2C_ReceiveData 0498               __size_of_interrupts_Event 0350  
             __size_of_interrupts_Setup 005A                               __pintcode 0008  
              i2C_ReceiveData@sendBytes 0001                                _IPR1bits 000F9F  
                           ??_i2C_Setup 0015                                _IPR2bits 000FA2  
                              _PIE1bits 000F9D                                _PIE2bits 000FA0  
                           ??_i2C_Start 0001                                i2u100_40 01F6  
                              i2u100_41 01F2                                i2u101_40 0204  
                              i2u101_41 0200                                i2u110_40 02A0  
                              i2u102_40 0218                                i2u110_41 029C  
                              i2u102_41 0214                                i2u111_40 02AE  
                              i2u103_40 0226                                i2u111_41 02AA  
                              i2u103_41 0222                                i2u112_40 02C2  
                              i2u104_40 023A                                i2u112_41 02BE  
                              i2u104_41 0236                                i2u113_40 02D0  
                              i2u105_40 0248                                i2u113_41 02CC  
                              i2u105_41 0244                                i2u114_40 02E4  
                              i2u106_40 025C                                i2u114_41 02E0  
                              i2u106_41 0258                                i2u115_40 02F2  
                              i2u107_40 026A                                i2u115_41 02EE  
                              i2u107_41 0266                                i2u108_40 027E  
                              i2u108_41 027A                                i2u109_40 028C  
                              i2u109_41 0288                                _PIR1bits 000F9E  
                              _PIR2bits 000FA1                                _i2C_Wait 04F2  
                              _i2C_Stop 0602                        ?_i2C_ReceiveData 0001  
                           _INTCON2bits 000FF1                             _INTCON3bits 000FF0  
      __size_of_vl53l0x_I2C_ReceiveData 0034                                __Hrparam 0000  
                              __Lrparam 0000        i2C_ReceiveData@numberOfSendBytes 0003  
                              __ptext10 04F2                   interrupts_Event@value 0014  
                  i2C_ReceiveData@i_848 0009                           __size_of_main 0026  
                      _interrupts_Event 0008                        _interrupts_Setup 0498  
                              int$flags 0019                 vl53l0x_i2C_SendData@F21 0015  
                            _INTCONbits 000FF2         vl53l0x_I2C_ReceiveData@sendData 000C  
                 __end_of_vl5310x_Setup 0630                                intlevel2 0000  
                   __CFG_FOSC$INTOSC_EC 000000              vl53l0x_I2C_ReceiveData@F26 0018  
            vl53l0x_I2C_ReceiveData@F28 0017                             _SSPCON1bits 000FC6  
                           _SSPCON2bits 000FC5         interrupts_Event@device_register 0013  
               _vl53l0x_I2C_ReceiveData 0542  
